ARM GAS  C:\Users\82057\AppData\Local\Temp\ccr6M0Bb.s 			page 1


   1              		.cpu cortex-m4
   2              		.eabi_attribute 27, 1
   3              		.eabi_attribute 28, 1
   4              		.eabi_attribute 20, 1
   5              		.eabi_attribute 21, 1
   6              		.eabi_attribute 23, 3
   7              		.eabi_attribute 24, 1
   8              		.eabi_attribute 25, 1
   9              		.eabi_attribute 26, 1
  10              		.eabi_attribute 30, 4
  11              		.eabi_attribute 34, 1
  12              		.eabi_attribute 18, 4
  13              		.file	"led.c"
  14              		.text
  15              	.Ltext0:
  16              		.cfi_sections	.debug_frame
  17              		.section	.text.LED_Init,"ax",%progbits
  18              		.align	1
  19              		.global	LED_Init
  20              		.syntax unified
  21              		.thumb
  22              		.thumb_func
  23              		.fpu fpv4-sp-d16
  25              	LED_Init:
  26              	.LFB333:
  27              		.file 1 "Src/led.c"
   1:Src/led.c     **** #include "led.h"
   2:Src/led.c     **** #include "stm32g4xx_hal.h"
   3:Src/led.c     **** 
   4:Src/led.c     **** void LED_Init(void)
   5:Src/led.c     **** {
  28              		.loc 1 5 0
  29              		.cfi_startproc
  30              		@ args = 0, pretend = 0, frame = 32
  31              		@ frame_needed = 0, uses_anonymous_args = 0
  32              	.LBB2:
   6:Src/led.c     **** 	GPIO_InitTypeDef GPIO_InitStructure;
   7:Src/led.c     **** 
   8:Src/led.c     **** 
   9:Src/led.c     **** 	//使能端口时钟
  10:Src/led.c     **** 	__HAL_RCC_GPIOA_CLK_ENABLE();
  33              		.loc 1 10 0
  34 0000 2F4B     		ldr	r3, .L2
  35              	.LBE2:
   5:Src/led.c     **** 	GPIO_InitTypeDef GPIO_InitStructure;
  36              		.loc 1 5 0
  37 0002 2DE9F041 		push	{r4, r5, r6, r7, r8, lr}
  38              	.LCFI0:
  39              		.cfi_def_cfa_offset 24
  40              		.cfi_offset 4, -24
  41              		.cfi_offset 5, -20
  42              		.cfi_offset 6, -16
  43              		.cfi_offset 7, -12
  44              		.cfi_offset 8, -8
  45              		.cfi_offset 14, -4
  46              	.LBB3:
  47              		.loc 1 10 0
ARM GAS  C:\Users\82057\AppData\Local\Temp\ccr6M0Bb.s 			page 2


  48 0006 DA6C     		ldr	r2, [r3, #76]
  49              	.LBE3:
  11:Src/led.c     **** 	__HAL_RCC_GPIOB_CLK_ENABLE();
  12:Src/led.c     **** 	__HAL_RCC_GPIOC_CLK_ENABLE();
  13:Src/led.c     **** 
  14:Src/led.c     **** 	//LED1_OFF();
  15:Src/led.c     **** 	//LED2_OFF();  
  16:Src/led.c     **** 	//GPIO设置
  17:Src/led.c     **** 	
  18:Src/led.c     **** //	GPIO_InitStructure.GPIO_Pin  = GPIO_Pin_6|GPIO_Pin_7;
  19:Src/led.c     **** //	GPIO_InitStructure.GPIO_Mode = GPIO_Mode_OUT;
  20:Src/led.c     **** //	GPIO_InitStructure.GPIO_Speed = GPIO_Speed_Level_3;
  21:Src/led.c     **** //	GPIO_InitStructure.GPIO_OType = GPIO_OType_PP;
  22:Src/led.c     **** //	GPIO_InitStructure.GPIO_PuPd = GPIO_PuPd_NOPULL;
  23:Src/led.c     **** //  GPIO_Init(GPIOA, &GPIO_InitStructure);
  24:Src/led.c     **** 
  25:Src/led.c     **** 	#if 1 
  26:Src/led.c     **** 
  27:Src/led.c     **** 	GPIO_InitStructure.Pin  = GPIO_PIN_4;
  28:Src/led.c     **** 	GPIO_InitStructure.Mode = GPIO_MODE_OUTPUT_PP;
  29:Src/led.c     **** 	GPIO_InitStructure.Speed = GPIO_SPEED_FREQ_MEDIUM;
  30:Src/led.c     **** 	GPIO_InitStructure.Pull = GPIO_PULLUP;
  31:Src/led.c     ****   HAL_GPIO_Init(GPIOA, &GPIO_InitStructure);
  32:Src/led.c     **** 	
  33:Src/led.c     **** 	#endif 
  34:Src/led.c     **** 	
  35:Src/led.c     **** 	GPIO_InitStructure.Pin  = GPIO_PIN_12|GPIO_PIN_6;
  36:Src/led.c     **** 	GPIO_InitStructure.Mode = GPIO_MODE_OUTPUT_PP;
  37:Src/led.c     **** 	GPIO_InitStructure.Speed = GPIO_SPEED_FREQ_HIGH;
  38:Src/led.c     **** 	GPIO_InitStructure.Pull = GPIO_PULLUP;
  39:Src/led.c     **** 	
  40:Src/led.c     ****   HAL_GPIO_Init(GPIOA, &GPIO_InitStructure);
  41:Src/led.c     **** 	
  42:Src/led.c     **** 	GPIO_InitStructure.Pin  = GPIO_PIN_11;// MP6540  BBL_nfault pin
  43:Src/led.c     **** 	GPIO_InitStructure.Mode = GPIO_MODE_INPUT;
  44:Src/led.c     **** 	GPIO_InitStructure.Speed = GPIO_SPEED_FREQ_HIGH;
  45:Src/led.c     **** 	GPIO_InitStructure.Pull = GPIO_PULLUP;
  46:Src/led.c     ****   HAL_GPIO_Init(GPIOB, &GPIO_InitStructure);
  50              		.loc 1 46 0
  51 0008 2E4E     		ldr	r6, .L2+4
  52              	.LBB4:
  10:Src/led.c     **** 	__HAL_RCC_GPIOB_CLK_ENABLE();
  53              		.loc 1 10 0
  54 000a 42F00102 		orr	r2, r2, #1
  55 000e DA64     		str	r2, [r3, #76]
  56 0010 DA6C     		ldr	r2, [r3, #76]
  57              	.LBE4:
   5:Src/led.c     **** 	GPIO_InitTypeDef GPIO_InitStructure;
  58              		.loc 1 5 0
  59 0012 88B0     		sub	sp, sp, #32
  60              	.LCFI1:
  61              		.cfi_def_cfa_offset 56
  62              	.LBB5:
  10:Src/led.c     **** 	__HAL_RCC_GPIOB_CLK_ENABLE();
  63              		.loc 1 10 0
  64 0014 02F00102 		and	r2, r2, #1
  65 0018 0092     		str	r2, [sp]
ARM GAS  C:\Users\82057\AppData\Local\Temp\ccr6M0Bb.s 			page 3


  66 001a 009A     		ldr	r2, [sp]
  67              	.LBE5:
  68              	.LBB6:
  11:Src/led.c     **** 	__HAL_RCC_GPIOB_CLK_ENABLE();
  69              		.loc 1 11 0
  70 001c DA6C     		ldr	r2, [r3, #76]
  71 001e 42F00202 		orr	r2, r2, #2
  72 0022 DA64     		str	r2, [r3, #76]
  73 0024 DA6C     		ldr	r2, [r3, #76]
  74 0026 02F00202 		and	r2, r2, #2
  75 002a 0192     		str	r2, [sp, #4]
  76 002c 019A     		ldr	r2, [sp, #4]
  77              	.LBE6:
  78              	.LBB7:
  12:Src/led.c     **** 
  79              		.loc 1 12 0
  80 002e DA6C     		ldr	r2, [r3, #76]
  81 0030 42F00402 		orr	r2, r2, #4
  82 0034 DA64     		str	r2, [r3, #76]
  83 0036 DB6C     		ldr	r3, [r3, #76]
  84 0038 03F00403 		and	r3, r3, #4
  85 003c 0293     		str	r3, [sp, #8]
  86              	.LBE7:
  28:Src/led.c     **** 	GPIO_InitStructure.Speed = GPIO_SPEED_FREQ_MEDIUM;
  87              		.loc 1 28 0
  88 003e 0124     		movs	r4, #1
  89              	.LBB8:
  12:Src/led.c     **** 
  90              		.loc 1 12 0
  91 0040 029B     		ldr	r3, [sp, #8]
  92              	.LBE8:
  31:Src/led.c     **** 	
  93              		.loc 1 31 0
  94 0042 03A9     		add	r1, sp, #12
  28:Src/led.c     **** 	GPIO_InitStructure.Speed = GPIO_SPEED_FREQ_MEDIUM;
  95              		.loc 1 28 0
  96 0044 1023     		movs	r3, #16
  31:Src/led.c     **** 	
  97              		.loc 1 31 0
  98 0046 4FF09040 		mov	r0, #1207959552
  37:Src/led.c     **** 	GPIO_InitStructure.Pull = GPIO_PULLUP;
  99              		.loc 1 37 0
 100 004a 0225     		movs	r5, #2
  28:Src/led.c     **** 	GPIO_InitStructure.Speed = GPIO_SPEED_FREQ_MEDIUM;
 101              		.loc 1 28 0
 102 004c CDE90334 		strd	r3, r4, [sp, #12]
  30:Src/led.c     ****   HAL_GPIO_Init(GPIOA, &GPIO_InitStructure);
 103              		.loc 1 30 0
 104 0050 CDE90544 		strd	r4, r4, [sp, #20]
  31:Src/led.c     **** 	
 105              		.loc 1 31 0
 106 0054 FFF7FEFF 		bl	HAL_GPIO_Init
 107              	.LVL0:
  35:Src/led.c     **** 	GPIO_InitStructure.Mode = GPIO_MODE_OUTPUT_PP;
 108              		.loc 1 35 0
 109 0058 4FF48253 		mov	r3, #4160
  40:Src/led.c     **** 	
ARM GAS  C:\Users\82057\AppData\Local\Temp\ccr6M0Bb.s 			page 4


 110              		.loc 1 40 0
 111 005c 03A9     		add	r1, sp, #12
 112 005e 4FF09040 		mov	r0, #1207959552
  36:Src/led.c     **** 	GPIO_InitStructure.Speed = GPIO_SPEED_FREQ_HIGH;
 113              		.loc 1 36 0
 114 0062 CDE90334 		strd	r3, r4, [sp, #12]
  43:Src/led.c     **** 	GPIO_InitStructure.Speed = GPIO_SPEED_FREQ_HIGH;
 115              		.loc 1 43 0
 116 0066 4FF00008 		mov	r8, #0
  38:Src/led.c     **** 	
 117              		.loc 1 38 0
 118 006a CDE90545 		strd	r4, r5, [sp, #20]
  40:Src/led.c     **** 	
 119              		.loc 1 40 0
 120 006e FFF7FEFF 		bl	HAL_GPIO_Init
 121              	.LVL1:
  43:Src/led.c     **** 	GPIO_InitStructure.Speed = GPIO_SPEED_FREQ_HIGH;
 122              		.loc 1 43 0
 123 0072 4FF40063 		mov	r3, #2048
 124              		.loc 1 46 0
 125 0076 03A9     		add	r1, sp, #12
 126 0078 3046     		mov	r0, r6
  43:Src/led.c     **** 	GPIO_InitStructure.Speed = GPIO_SPEED_FREQ_HIGH;
 127              		.loc 1 43 0
 128 007a CDE90338 		strd	r3, r8, [sp, #12]
  47:Src/led.c     **** 	
  48:Src/led.c     **** 	GPIO_InitStructure.Pin  = GPIO_PIN_12;// MP6540  BBL_nfault pin
 129              		.loc 1 48 0
 130 007e 4FF48057 		mov	r7, #4096
  45:Src/led.c     ****   HAL_GPIO_Init(GPIOB, &GPIO_InitStructure);
 131              		.loc 1 45 0
 132 0082 CDE90545 		strd	r4, r5, [sp, #20]
  46:Src/led.c     **** 	
 133              		.loc 1 46 0
 134 0086 FFF7FEFF 		bl	HAL_GPIO_Init
 135              	.LVL2:
  49:Src/led.c     **** 	GPIO_InitStructure.Mode = GPIO_MODE_OUTPUT_PP;
  50:Src/led.c     **** 	GPIO_InitStructure.Speed = GPIO_SPEED_FREQ_HIGH;
  51:Src/led.c     **** 	GPIO_InitStructure.Pull = GPIO_PULLDOWN;
  52:Src/led.c     ****   HAL_GPIO_Init(GPIOB, &GPIO_InitStructure);
 136              		.loc 1 52 0
 137 008a 03A9     		add	r1, sp, #12
 138 008c 3046     		mov	r0, r6
  49:Src/led.c     **** 	GPIO_InitStructure.Mode = GPIO_MODE_OUTPUT_PP;
 139              		.loc 1 49 0
 140 008e CDE90374 		strd	r7, r4, [sp, #12]
  51:Src/led.c     ****   HAL_GPIO_Init(GPIOB, &GPIO_InitStructure);
 141              		.loc 1 51 0
 142 0092 CDE90555 		strd	r5, r5, [sp, #20]
 143              		.loc 1 52 0
 144 0096 FFF7FEFF 		bl	HAL_GPIO_Init
 145              	.LVL3:
  53:Src/led.c     **** 	
  54:Src/led.c     **** 	HAL_GPIO_WritePin(GPIOB,GPIO_PIN_12,0);
 146              		.loc 1 54 0
 147 009a 4246     		mov	r2, r8
 148 009c 3946     		mov	r1, r7
ARM GAS  C:\Users\82057\AppData\Local\Temp\ccr6M0Bb.s 			page 5


 149 009e 3046     		mov	r0, r6
 150 00a0 FFF7FEFF 		bl	HAL_GPIO_WritePin
 151              	.LVL4:
  55:Src/led.c     **** 	
  56:Src/led.c     **** 	
  57:Src/led.c     **** 	GPIO_InitStructure.Pin  = GPIO_PIN_14;
 152              		.loc 1 57 0
 153 00a4 4FF48043 		mov	r3, #16384
  58:Src/led.c     **** 	GPIO_InitStructure.Mode = GPIO_MODE_OUTPUT_PP;
  59:Src/led.c     **** 	GPIO_InitStructure.Speed = GPIO_SPEED_FREQ_HIGH;
  60:Src/led.c     **** 	GPIO_InitStructure.Pull = GPIO_PULLUP;
  61:Src/led.c     ****   HAL_GPIO_Init(GPIOC, &GPIO_InitStructure);
 154              		.loc 1 61 0
 155 00a8 03A9     		add	r1, sp, #12
 156 00aa 0748     		ldr	r0, .L2+8
  58:Src/led.c     **** 	GPIO_InitStructure.Mode = GPIO_MODE_OUTPUT_PP;
 157              		.loc 1 58 0
 158 00ac CDE90334 		strd	r3, r4, [sp, #12]
  60:Src/led.c     ****   HAL_GPIO_Init(GPIOC, &GPIO_InitStructure);
 159              		.loc 1 60 0
 160 00b0 CDE90545 		strd	r4, r5, [sp, #20]
 161              		.loc 1 61 0
 162 00b4 FFF7FEFF 		bl	HAL_GPIO_Init
 163              	.LVL5:
  62:Src/led.c     **** }
 164              		.loc 1 62 0
 165 00b8 08B0     		add	sp, sp, #32
 166              	.LCFI2:
 167              		.cfi_def_cfa_offset 24
 168              		@ sp needed
 169 00ba BDE8F081 		pop	{r4, r5, r6, r7, r8, pc}
 170              	.L3:
 171 00be 00BF     		.align	2
 172              	.L2:
 173 00c0 00100240 		.word	1073876992
 174 00c4 00040048 		.word	1207960576
 175 00c8 00080048 		.word	1207961600
 176              		.cfi_endproc
 177              	.LFE333:
 179              		.text
 180              	.Letext0:
 181              		.file 2 "c:\\program files (x86)\\gnu tools arm embedded\\7 2018-q2-update\\arm-none-eabi\\include
 182              		.file 3 "c:\\program files (x86)\\gnu tools arm embedded\\7 2018-q2-update\\arm-none-eabi\\include
 183              		.file 4 "Drivers/STM32G4xx_HAL_Driver/Inc/stm32g4xx_hal.h"
 184              		.file 5 "Drivers/CMSIS/Include/core_cm4.h"
 185              		.file 6 "Drivers/CMSIS/Device/ST/STM32G4xx/Include/system_stm32g4xx.h"
 186              		.file 7 "Drivers/CMSIS/Device/ST/STM32G4xx/Include/stm32g431xx.h"
 187              		.file 8 "Drivers/CMSIS/Device/ST/STM32G4xx/Include/stm32g4xx.h"
 188              		.file 9 "Drivers/STM32G4xx_HAL_Driver/Inc/stm32g4xx_hal_def.h"
 189              		.file 10 "Drivers/STM32G4xx_HAL_Driver/Inc/stm32g4xx_hal_gpio.h"
 190              		.file 11 "Drivers/STM32G4xx_HAL_Driver/Inc/stm32g4xx_hal_dma.h"
 191              		.file 12 "Drivers/STM32G4xx_HAL_Driver/Inc/stm32g4xx_hal_adc.h"
 192              		.file 13 "Drivers/STM32G4xx_HAL_Driver/Inc/stm32g4xx_hal_flash.h"
 193              		.file 14 "Drivers/STM32G4xx_HAL_Driver/Inc/stm32g4xx_hal_spi.h"
 194              		.file 15 "Drivers/STM32G4xx_HAL_Driver/Inc/stm32g4xx_hal_tim.h"
 195              		.file 16 "Drivers/STM32G4xx_HAL_Driver/Inc/stm32g4xx_hal_uart.h"
 196              		.file 17 "c:\\program files (x86)\\gnu tools arm embedded\\7 2018-q2-update\\arm-none-eabi\\includ
ARM GAS  C:\Users\82057\AppData\Local\Temp\ccr6M0Bb.s 			page 6


 197              		.file 18 "c:\\program files (x86)\\gnu tools arm embedded\\7 2018-q2-update\\arm-none-eabi\\includ
 198              		.file 19 "c:\\program files (x86)\\gnu tools arm embedded\\7 2018-q2-update\\lib\\gcc\\arm-none-ea
 199              		.file 20 "c:\\program files (x86)\\gnu tools arm embedded\\7 2018-q2-update\\arm-none-eabi\\includ
 200              		.file 21 "c:\\program files (x86)\\gnu tools arm embedded\\7 2018-q2-update\\arm-none-eabi\\includ
 201              		.file 22 "Inc/uart.h"
 202              		.file 23 "Inc/pwm.h"
 203              		.file 24 "Inc/spi_MEncoder.h"
 204              		.file 25 "Inc/adc.h"
 205              		.file 26 "Inc/stm32_math_sin.h"
 206              		.file 27 "Inc/pid.h"
 207              		.file 28 "Inc/profile_joint.h"
 208              		.file 29 "Inc/icmu.h"
 209              		.file 30 "Inc/performance_test.h"
 210              		.file 31 "Inc/global.h"
ARM GAS  C:\Users\82057\AppData\Local\Temp\ccr6M0Bb.s 			page 7

