ARM GAS  C:\Users\82057\AppData\Local\Temp\ccgkqEJ6.s 			page 1


   1              		.cpu cortex-m4
   2              		.eabi_attribute 27, 1
   3              		.eabi_attribute 28, 1
   4              		.eabi_attribute 20, 1
   5              		.eabi_attribute 21, 1
   6              		.eabi_attribute 23, 3
   7              		.eabi_attribute 24, 1
   8              		.eabi_attribute 25, 1
   9              		.eabi_attribute 26, 1
  10              		.eabi_attribute 30, 4
  11              		.eabi_attribute 34, 1
  12              		.eabi_attribute 18, 4
  13              		.file	"limit_pos_detection.c"
  14              		.text
  15              	.Ltext0:
  16              		.cfi_sections	.debug_frame
  17              		.section	.text.detect_limitPos,"ax",%progbits
  18              		.align	1
  19              		.global	detect_limitPos
  20              		.syntax unified
  21              		.thumb
  22              		.thumb_func
  23              		.fpu fpv4-sp-d16
  25              	detect_limitPos:
  26              	.LFB333:
  27              		.file 1 "Src/limit_pos_detection.c"
   1:Src/limit_pos_detection.c **** #include "limit_pos_detection.h"
   2:Src/limit_pos_detection.c **** #include "global.h"
   3:Src/limit_pos_detection.c **** /*------------------------------寻找极限位置相关变量---------------------------------*/
   4:Src/limit_pos_detection.c **** volatile s16 g_pos_act_array[8] = {0};		      		// 实际位置记录序列
   5:Src/limit_pos_detection.c **** volatile s16 g_pos_act_average = 0;		      				// 实际位置记录序列
   6:Src/limit_pos_detection.c **** volatile s16 g_current_array[8] = {0};		      		// 实际位置记录序列
   7:Src/limit_pos_detection.c **** volatile s16 g_current_average = 0;		      				// 实际位置记录序列
   8:Src/limit_pos_detection.c **** volatile u8 g_reachUpperLimit = 0;		      		// 到达位置极限 上限
   9:Src/limit_pos_detection.c **** volatile u8 g_reachLowerLimit = 0;		      		// 到达位置极限 下限		      
  10:Src/limit_pos_detection.c **** volatile u8 g_posNotChange = 0;		      		    // 位置不变化  
  11:Src/limit_pos_detection.c **** /*-------------------------------------                    --------------------------*/
  12:Src/limit_pos_detection.c **** /*
  13:Src/limit_pos_detection.c **** funtion:
  14:Src/limit_pos_detection.c **** para 
  15:Src/limit_pos_detection.c **** 
  16:Src/limit_pos_detection.c **** */
  17:Src/limit_pos_detection.c **** 
  18:Src/limit_pos_detection.c **** enum
  19:Src/limit_pos_detection.c **** {
  20:Src/limit_pos_detection.c **** 	ALERT = 0x01,
  21:Src/limit_pos_detection.c **** 	FAULT = 0x02,
  22:Src/limit_pos_detection.c **** 	RUNNNING = 0x04,
  23:Src/limit_pos_detection.c **** };
  24:Src/limit_pos_detection.c **** 
  25:Src/limit_pos_detection.c **** 
  26:Src/limit_pos_detection.c **** 	#define MIN_CUR_UPPER_LIMIT_PU (5*16384/100)
  27:Src/limit_pos_detection.c **** 	#define MAX_CUR_UPPER_LIMIT_PU (60*16384/100)
  28:Src/limit_pos_detection.c **** 	
  29:Src/limit_pos_detection.c **** 	#define MIN_CUR_LOWER_LIMIT_PU  (-60*16384/100)
  30:Src/limit_pos_detection.c **** 	#define MAX_CUR_LOWER_LIMIT_PU   (-5*16384/100)
  31:Src/limit_pos_detection.c **** 
ARM GAS  C:\Users\82057\AppData\Local\Temp\ccgkqEJ6.s 			page 2


  32:Src/limit_pos_detection.c **** 
  33:Src/limit_pos_detection.c **** void detect_limitPos(s16 pos_act,s16 current_set)
  34:Src/limit_pos_detection.c **** {
  28              		.loc 1 34 0
  29              		.cfi_startproc
  30              		@ args = 0, pretend = 0, frame = 0
  31              		@ frame_needed = 0, uses_anonymous_args = 0
  32              	.LVL0:
  33 0000 2DE9F047 		push	{r4, r5, r6, r7, r8, r9, r10, lr}
  34              	.LCFI0:
  35              		.cfi_def_cfa_offset 32
  36              		.cfi_offset 4, -32
  37              		.cfi_offset 5, -28
  38              		.cfi_offset 6, -24
  39              		.cfi_offset 7, -20
  40              		.cfi_offset 8, -16
  41              		.cfi_offset 9, -12
  42              		.cfi_offset 10, -8
  43              		.cfi_offset 14, -4
  35:Src/limit_pos_detection.c **** 	s16 i=0;
  36:Src/limit_pos_detection.c **** 	static int time_after_power_on = 0;
  37:Src/limit_pos_detection.c **** 	static int repeat_cnt =0;
  38:Src/limit_pos_detection.c **** 	
  39:Src/limit_pos_detection.c **** /***********增加标志位******/		
  40:Src/limit_pos_detection.c **** 	if(g_reachUpperLimit == 1)
  44              		.loc 1 40 0
  45 0004 2E4E     		ldr	r6, .L38
  46 0006 2F4C     		ldr	r4, .L38+4
  47 0008 3378     		ldrb	r3, [r6]	@ zero_extendqisi2
  41:Src/limit_pos_detection.c **** 	{
  42:Src/limit_pos_detection.c **** 		g_CmdMap[CMD_STATE_WORD] = g_CmdMap[CMD_STATE_WORD]|(0x0001<<6);
  43:Src/limit_pos_detection.c **** 	}
  44:Src/limit_pos_detection.c **** 	else
  45:Src/limit_pos_detection.c **** 	{
  46:Src/limit_pos_detection.c **** 		g_CmdMap[CMD_STATE_WORD] = g_CmdMap[CMD_STATE_WORD]&(~(0x0001<<6));
  47:Src/limit_pos_detection.c **** 	}
  48:Src/limit_pos_detection.c **** 	
  49:Src/limit_pos_detection.c **** 	if(g_reachLowerLimit == 1)
  48              		.loc 1 49 0
  49 000a 2F4D     		ldr	r5, .L38+8
  40:Src/limit_pos_detection.c **** 	{
  50              		.loc 1 40 0
  51 000c 012B     		cmp	r3, #1
  42:Src/limit_pos_detection.c **** 	}
  52              		.loc 1 42 0
  53 000e A38D     		ldrh	r3, [r4, #44]
  54 0010 1BB2     		sxth	r3, r3
  55 0012 0CBF     		ite	eq
  56 0014 43F04003 		orreq	r3, r3, #64
  46:Src/limit_pos_detection.c **** 	}
  57              		.loc 1 46 0
  58 0018 23F04003 		bicne	r3, r3, #64
  59 001c A385     		strh	r3, [r4, #44]	@ movhi
  60              		.loc 1 49 0
  61 001e 2B78     		ldrb	r3, [r5]	@ zero_extendqisi2
  62 0020 012B     		cmp	r3, #1
  50:Src/limit_pos_detection.c **** 	{
ARM GAS  C:\Users\82057\AppData\Local\Temp\ccgkqEJ6.s 			page 3


  51:Src/limit_pos_detection.c **** 		g_CmdMap[CMD_STATE_WORD] = g_CmdMap[CMD_STATE_WORD]|(0x0001<<7);
  63              		.loc 1 51 0
  64 0022 A38D     		ldrh	r3, [r4, #44]
  65 0024 1BB2     		sxth	r3, r3
  66 0026 0CBF     		ite	eq
  67 0028 43F08003 		orreq	r3, r3, #128
  52:Src/limit_pos_detection.c **** 	}
  53:Src/limit_pos_detection.c **** 	else
  54:Src/limit_pos_detection.c **** 	{
  55:Src/limit_pos_detection.c **** 		g_CmdMap[CMD_STATE_WORD] = g_CmdMap[CMD_STATE_WORD]&(~(0x0001<<7));
  68              		.loc 1 55 0
  69 002c 23F08003 		bicne	r3, r3, #128
  70 0030 A385     		strh	r3, [r4, #44]	@ movhi
  56:Src/limit_pos_detection.c **** 	}
  57:Src/limit_pos_detection.c **** 	
  58:Src/limit_pos_detection.c **** 	if(( g_CmdMap[CMD_ERROR] & 0x0fff ) )
  71              		.loc 1 58 0
  72 0032 B4F85430 		ldrh	r3, [r4, #84]
  73 0036 C3F30B03 		ubfx	r3, r3, #0, #12
  34:Src/limit_pos_detection.c **** 	s16 i=0;
  74              		.loc 1 34 0
  75 003a 8046     		mov	r8, r0
  76 003c 0F46     		mov	r7, r1
  77              		.loc 1 58 0
  78 003e EBB1     		cbz	r3, .L6
  59:Src/limit_pos_detection.c **** 	{
  60:Src/limit_pos_detection.c **** 		g_CmdMap[CMD_STATE_WORD] |= FAULT;
  79              		.loc 1 60 0
  80 0040 A38D     		ldrh	r3, [r4, #44]
  81 0042 1BB2     		sxth	r3, r3
  82 0044 43F00203 		orr	r3, r3, #2
  83              	.L33:
  61:Src/limit_pos_detection.c **** 	}
  62:Src/limit_pos_detection.c **** 	else
  63:Src/limit_pos_detection.c **** 	{
  64:Src/limit_pos_detection.c **** 		g_CmdMap[CMD_STATE_WORD] &= (~FAULT);
  84              		.loc 1 64 0
  85 0048 A385     		strh	r3, [r4, #44]	@ movhi
  65:Src/limit_pos_detection.c **** 	}
  66:Src/limit_pos_detection.c **** 	
  67:Src/limit_pos_detection.c **** 	if(( g_CmdMap[CMD_ERROR] & 0xf000) )
  86              		.loc 1 67 0
  87 004a B4F85430 		ldrh	r3, [r4, #84]
  88 004e 13F4704F 		tst	r3, #61440
  68:Src/limit_pos_detection.c **** 	{
  69:Src/limit_pos_detection.c **** 		g_CmdMap[CMD_STATE_WORD] |= ALERT;
  89              		.loc 1 69 0
  90 0052 A38D     		ldrh	r3, [r4, #44]
  91 0054 1BB2     		sxth	r3, r3
  92 0056 14BF     		ite	ne
  93 0058 43F00103 		orrne	r3, r3, #1
  70:Src/limit_pos_detection.c **** 	}
  71:Src/limit_pos_detection.c **** 	else
  72:Src/limit_pos_detection.c **** 	{
  73:Src/limit_pos_detection.c **** 		g_CmdMap[CMD_STATE_WORD] &= (~ALERT);
  94              		.loc 1 73 0
  95 005c 23F00103 		biceq	r3, r3, #1
ARM GAS  C:\Users\82057\AppData\Local\Temp\ccgkqEJ6.s 			page 4


  96 0060 A385     		strh	r3, [r4, #44]	@ movhi
  74:Src/limit_pos_detection.c **** 	}
  75:Src/limit_pos_detection.c **** 	
  76:Src/limit_pos_detection.c **** 	if(g_CmdMap[TAG_MOTOR_ENABLE] == 0) 				
  97              		.loc 1 76 0
  98 0062 B4F80222 		ldrh	r2, [r4, #514]
  99 0066 12B2     		sxth	r2, r2
 100 0068 6AB9     		cbnz	r2, .L10
  77:Src/limit_pos_detection.c **** 	{
  78:Src/limit_pos_detection.c **** 		g_CmdMap[CMD_STATE_WORD] &=  (~RUNNNING);
 101              		.loc 1 78 0
 102 006a A38D     		ldrh	r3, [r4, #44]
 103 006c 1BB2     		sxth	r3, r3
 104 006e 23F00403 		bic	r3, r3, #4
 105 0072 A385     		strh	r3, [r4, #44]	@ movhi
  79:Src/limit_pos_detection.c **** 		
  80:Src/limit_pos_detection.c **** 		time_after_power_on = 0;
 106              		.loc 1 80 0
 107 0074 154B     		ldr	r3, .L38+12
 108 0076 1A60     		str	r2, [r3]
 109              	.LVL1:
 110              	.L1:
  81:Src/limit_pos_detection.c **** 		return;
  82:Src/limit_pos_detection.c **** 	}
  83:Src/limit_pos_detection.c **** 	
  84:Src/limit_pos_detection.c **** 	if( target_position_arrived(  g_CmdMap[CMD_POS_SET_PU] , g_CmdMap[CMD_POS_ACT_PU] ) == 0 )
  85:Src/limit_pos_detection.c **** 	{
  86:Src/limit_pos_detection.c **** 		g_CmdMap[CMD_STATE_WORD] &=  (~RUNNNING);
  87:Src/limit_pos_detection.c **** 	}
  88:Src/limit_pos_detection.c **** 	else
  89:Src/limit_pos_detection.c **** 	{
  90:Src/limit_pos_detection.c **** 		g_CmdMap[CMD_STATE_WORD] |=  RUNNNING; 
  91:Src/limit_pos_detection.c **** 	}
  92:Src/limit_pos_detection.c **** 	/*************增加标志位**********/
  93:Src/limit_pos_detection.c **** 	
  94:Src/limit_pos_detection.c **** 	
  95:Src/limit_pos_detection.c **** 	
  96:Src/limit_pos_detection.c **** 	/*****************不使能找极限功能，退出************/
  97:Src/limit_pos_detection.c **** 	if( g_CmdMap[CMD_LIMIT_DETECT_ENABLE] != 1 )  
  98:Src/limit_pos_detection.c **** 	{
  99:Src/limit_pos_detection.c **** 		return;
 100:Src/limit_pos_detection.c **** 	}
 101:Src/limit_pos_detection.c **** 	/*******************不使能找极限功能，退出*************/
 102:Src/limit_pos_detection.c **** 
 103:Src/limit_pos_detection.c **** /****使能开始后延时 100ms 再启动找极限功能*****/	
 104:Src/limit_pos_detection.c **** 	time_after_power_on++;
 105:Src/limit_pos_detection.c **** 	
 106:Src/limit_pos_detection.c **** 	if(  time_after_power_on < 100)
 107:Src/limit_pos_detection.c **** 	{
 108:Src/limit_pos_detection.c **** 		return;
 109:Src/limit_pos_detection.c **** 	}
 110:Src/limit_pos_detection.c **** 	else
 111:Src/limit_pos_detection.c **** 	{
 112:Src/limit_pos_detection.c **** 		time_after_power_on = 101;
 113:Src/limit_pos_detection.c **** 	}
 114:Src/limit_pos_detection.c **** 	/****使能开始后延时 100ms 再启动找极限功能*****/	
 115:Src/limit_pos_detection.c **** 	
ARM GAS  C:\Users\82057\AppData\Local\Temp\ccgkqEJ6.s 			page 5


 116:Src/limit_pos_detection.c **** 	
 117:Src/limit_pos_detection.c **** 	/******找极限代码*******/
 118:Src/limit_pos_detection.c **** 	
 119:Src/limit_pos_detection.c **** 	/*******每10ms才允许执行一次********/
 120:Src/limit_pos_detection.c **** 	if( ++repeat_cnt < 10)
 121:Src/limit_pos_detection.c **** 	{
 122:Src/limit_pos_detection.c **** 		return;
 123:Src/limit_pos_detection.c **** 	}	
 124:Src/limit_pos_detection.c **** 	repeat_cnt = 0;
 125:Src/limit_pos_detection.c **** 	
 126:Src/limit_pos_detection.c **** 	for(i=0;i<7;i++)
 127:Src/limit_pos_detection.c **** 	{
 128:Src/limit_pos_detection.c **** 		g_pos_act_array[i] = g_pos_act_array[i+1];
 129:Src/limit_pos_detection.c **** 		g_current_array[i] = g_current_array[i+1];
 130:Src/limit_pos_detection.c **** 	}
 131:Src/limit_pos_detection.c **** 	g_pos_act_array[7] = pos_act;
 132:Src/limit_pos_detection.c **** 	g_current_array[7] = current_set;
 133:Src/limit_pos_detection.c **** 	g_pos_act_average = (g_pos_act_array[0]+g_pos_act_array[1]+g_pos_act_array[2]+g_pos_act_array[3]
 134:Src/limit_pos_detection.c **** 										+g_pos_act_array[4]+g_pos_act_array[5]+g_pos_act_array[6]+g_pos_act_array[7])/8;
 135:Src/limit_pos_detection.c **** 	g_posNotChange = 1;
 136:Src/limit_pos_detection.c **** 	for(i=0;i<8;i++)
 137:Src/limit_pos_detection.c **** 	{
 138:Src/limit_pos_detection.c **** 		if(ABS(g_pos_act_average-g_pos_act_array[i])>10)
 139:Src/limit_pos_detection.c **** 		{
 140:Src/limit_pos_detection.c **** 			//位置有变化
 141:Src/limit_pos_detection.c **** 			g_posNotChange = 0;
 142:Src/limit_pos_detection.c **** 			break;
 143:Src/limit_pos_detection.c **** 		}
 144:Src/limit_pos_detection.c **** 	}
 145:Src/limit_pos_detection.c **** 	
 146:Src/limit_pos_detection.c **** 
 147:Src/limit_pos_detection.c **** 	
 148:Src/limit_pos_detection.c **** 	
 149:Src/limit_pos_detection.c **** 	if( g_CmdMap[CMD_CUR_UPPER_LIMIT_PU] < MIN_CUR_UPPER_LIMIT_PU )
 150:Src/limit_pos_detection.c **** 	{
 151:Src/limit_pos_detection.c **** 		g_CmdMap[CMD_CUR_UPPER_LIMIT_PU] = MIN_CUR_UPPER_LIMIT_PU;
 152:Src/limit_pos_detection.c **** 	}
 153:Src/limit_pos_detection.c **** 	
 154:Src/limit_pos_detection.c **** 	if( g_CmdMap[CMD_CUR_UPPER_LIMIT_PU] > MAX_CUR_UPPER_LIMIT_PU )
 155:Src/limit_pos_detection.c **** 	{
 156:Src/limit_pos_detection.c **** 		g_CmdMap[CMD_CUR_UPPER_LIMIT_PU] = MAX_CUR_UPPER_LIMIT_PU;
 157:Src/limit_pos_detection.c **** 	}
 158:Src/limit_pos_detection.c **** 	
 159:Src/limit_pos_detection.c **** 	if( g_CmdMap[CMD_CUR_LOWER_LIMIT_PU] < MIN_CUR_LOWER_LIMIT_PU )
 160:Src/limit_pos_detection.c **** 	{
 161:Src/limit_pos_detection.c **** 		g_CmdMap[CMD_CUR_LOWER_LIMIT_PU] = MIN_CUR_LOWER_LIMIT_PU;
 162:Src/limit_pos_detection.c **** 	}
 163:Src/limit_pos_detection.c **** 	
 164:Src/limit_pos_detection.c **** 	if( g_CmdMap[CMD_CUR_LOWER_LIMIT_PU] > MAX_CUR_LOWER_LIMIT_PU )
 165:Src/limit_pos_detection.c **** 	{
 166:Src/limit_pos_detection.c **** 		g_CmdMap[CMD_CUR_LOWER_LIMIT_PU] = MAX_CUR_LOWER_LIMIT_PU;
 167:Src/limit_pos_detection.c **** 	}
 168:Src/limit_pos_detection.c **** 	
 169:Src/limit_pos_detection.c **** 	
 170:Src/limit_pos_detection.c **** 	
 171:Src/limit_pos_detection.c **** 	if(g_current_array[0]>= g_CmdMap[CMD_CUR_UPPER_LIMIT_PU]
 172:Src/limit_pos_detection.c **** 		&&g_current_array[1]>= g_CmdMap[CMD_CUR_UPPER_LIMIT_PU]
ARM GAS  C:\Users\82057\AppData\Local\Temp\ccgkqEJ6.s 			page 6


 173:Src/limit_pos_detection.c **** 		&&g_current_array[2]>= g_CmdMap[CMD_CUR_UPPER_LIMIT_PU]
 174:Src/limit_pos_detection.c **** 		&&g_current_array[3]>= g_CmdMap[CMD_CUR_UPPER_LIMIT_PU]
 175:Src/limit_pos_detection.c **** 		&&g_current_array[4]>= g_CmdMap[CMD_CUR_UPPER_LIMIT_PU]
 176:Src/limit_pos_detection.c **** 		&&g_current_array[5]>= g_CmdMap[CMD_CUR_UPPER_LIMIT_PU]
 177:Src/limit_pos_detection.c **** 		&&g_current_array[6]>= g_CmdMap[CMD_CUR_UPPER_LIMIT_PU]
 178:Src/limit_pos_detection.c **** 		&&g_current_array[7]>= g_CmdMap[CMD_CUR_UPPER_LIMIT_PU]
 179:Src/limit_pos_detection.c **** 		&&g_posNotChange == 1
 180:Src/limit_pos_detection.c **** 		&&g_CmdMap[TAG_MOTOR_ENABLE] == 1
 181:Src/limit_pos_detection.c **** 	)
 182:Src/limit_pos_detection.c **** 	{
 183:Src/limit_pos_detection.c **** 		g_CmdMap[CMD_LIMIT_UPPER] = g_pos_act_average;
 184:Src/limit_pos_detection.c **** 		g_reachUpperLimit = 1;
 185:Src/limit_pos_detection.c **** 		g_CmdMap[CMD_PAUSE] = 1;
 186:Src/limit_pos_detection.c **** 	}
 187:Src/limit_pos_detection.c **** 	if(g_current_array[0]<= g_CmdMap[CMD_CUR_LOWER_LIMIT_PU]
 188:Src/limit_pos_detection.c **** 		&&g_current_array[1]<= g_CmdMap[CMD_CUR_LOWER_LIMIT_PU]
 189:Src/limit_pos_detection.c **** 		&&g_current_array[2]<= g_CmdMap[CMD_CUR_LOWER_LIMIT_PU]
 190:Src/limit_pos_detection.c **** 		&&g_current_array[3]<= g_CmdMap[CMD_CUR_LOWER_LIMIT_PU]
 191:Src/limit_pos_detection.c **** 		&&g_current_array[4]<= g_CmdMap[CMD_CUR_LOWER_LIMIT_PU]
 192:Src/limit_pos_detection.c **** 		&&g_current_array[5]<= g_CmdMap[CMD_CUR_LOWER_LIMIT_PU]
 193:Src/limit_pos_detection.c **** 		&&g_current_array[6]<= g_CmdMap[CMD_CUR_LOWER_LIMIT_PU]
 194:Src/limit_pos_detection.c **** 		&&g_current_array[7]<= g_CmdMap[CMD_CUR_LOWER_LIMIT_PU]
 195:Src/limit_pos_detection.c **** 		&&g_posNotChange == 1
 196:Src/limit_pos_detection.c **** 		&&g_CmdMap[TAG_MOTOR_ENABLE] == 1
 197:Src/limit_pos_detection.c **** 	)
 198:Src/limit_pos_detection.c **** 	{
 199:Src/limit_pos_detection.c **** 		g_CmdMap[CMD_LIMIT_LOWER] = g_pos_act_average;
 200:Src/limit_pos_detection.c **** 		g_reachLowerLimit = 1;
 201:Src/limit_pos_detection.c **** 		g_CmdMap[CMD_PAUSE] = 1;
 202:Src/limit_pos_detection.c **** 	}	
 203:Src/limit_pos_detection.c **** 	
 204:Src/limit_pos_detection.c **** //	if(current_set > 163)
 205:Src/limit_pos_detection.c **** //	{
 206:Src/limit_pos_detection.c **** //		g_reachLowerLimit = 0;
 207:Src/limit_pos_detection.c **** //	}
 208:Src/limit_pos_detection.c **** //	if(current_set < -163)
 209:Src/limit_pos_detection.c **** //	{
 210:Src/limit_pos_detection.c **** //		g_reachUpperLimit = 0;
 211:Src/limit_pos_detection.c **** //	}	
 212:Src/limit_pos_detection.c **** 		
 213:Src/limit_pos_detection.c **** 	
 214:Src/limit_pos_detection.c **** 
 215:Src/limit_pos_detection.c **** 	
 216:Src/limit_pos_detection.c **** 
 217:Src/limit_pos_detection.c **** 	
 218:Src/limit_pos_detection.c **** }
 111              		.loc 1 218 0
 112 0078 BDE8F087 		pop	{r4, r5, r6, r7, r8, r9, r10, pc}
 113              	.LVL2:
 114              	.L6:
  64:Src/limit_pos_detection.c **** 	}
 115              		.loc 1 64 0
 116 007c A38D     		ldrh	r3, [r4, #44]
 117 007e 1BB2     		sxth	r3, r3
 118 0080 23F00203 		bic	r3, r3, #2
 119 0084 E0E7     		b	.L33
 120              	.L10:
ARM GAS  C:\Users\82057\AppData\Local\Temp\ccgkqEJ6.s 			page 7


  84:Src/limit_pos_detection.c **** 	{
 121              		.loc 1 84 0
 122 0086 B4F84800 		ldrh	r0, [r4, #72]
 123              	.LVL3:
 124 008a B4F84C10 		ldrh	r1, [r4, #76]
 125              	.LVL4:
 126 008e 00B2     		sxth	r0, r0
 127 0090 09B2     		sxth	r1, r1
 128 0092 FFF7FEFF 		bl	target_position_arrived
 129              	.LVL5:
  86:Src/limit_pos_detection.c **** 	}
 130              		.loc 1 86 0
 131 0096 A38D     		ldrh	r3, [r4, #44]
 132 0098 1BB2     		sxth	r3, r3
  84:Src/limit_pos_detection.c **** 	{
 133              		.loc 1 84 0
 134 009a 68B9     		cbnz	r0, .L12
  86:Src/limit_pos_detection.c **** 	}
 135              		.loc 1 86 0
 136 009c 23F00403 		bic	r3, r3, #4
 137              	.L35:
  90:Src/limit_pos_detection.c **** 	}
 138              		.loc 1 90 0
 139 00a0 A385     		strh	r3, [r4, #44]	@ movhi
  97:Src/limit_pos_detection.c **** 	{
 140              		.loc 1 97 0
 141 00a2 638E     		ldrh	r3, [r4, #50]
 142 00a4 1BB2     		sxth	r3, r3
 143 00a6 012B     		cmp	r3, #1
 144 00a8 E6D1     		bne	.L1
 104:Src/limit_pos_detection.c **** 	
 145              		.loc 1 104 0
 146 00aa 084A     		ldr	r2, .L38+12
 147 00ac 1368     		ldr	r3, [r2]
 148 00ae 0133     		adds	r3, r3, #1
 106:Src/limit_pos_detection.c **** 	{
 149              		.loc 1 106 0
 150 00b0 632B     		cmp	r3, #99
 151 00b2 0DDC     		bgt	.L15
 152              	.L37:
 120:Src/limit_pos_detection.c **** 	{
 153              		.loc 1 120 0
 154 00b4 1360     		str	r3, [r2]
 155 00b6 DFE7     		b	.L1
 156              	.L12:
  90:Src/limit_pos_detection.c **** 	}
 157              		.loc 1 90 0
 158 00b8 43F00403 		orr	r3, r3, #4
 159 00bc F0E7     		b	.L35
 160              	.L39:
 161 00be 00BF     		.align	2
 162              	.L38:
 163 00c0 00000000 		.word	.LANCHOR0
 164 00c4 00000000 		.word	g_CmdMap
 165 00c8 00000000 		.word	.LANCHOR1
 166 00cc 00000000 		.word	.LANCHOR2
 167              	.L15:
ARM GAS  C:\Users\82057\AppData\Local\Temp\ccgkqEJ6.s 			page 8


 112:Src/limit_pos_detection.c **** 	}
 168              		.loc 1 112 0
 169 00d0 6523     		movs	r3, #101
 170 00d2 1360     		str	r3, [r2]
 120:Src/limit_pos_detection.c **** 	{
 171              		.loc 1 120 0
 172 00d4 854A     		ldr	r2, .L40
 173 00d6 1368     		ldr	r3, [r2]
 174 00d8 0133     		adds	r3, r3, #1
 175 00da 092B     		cmp	r3, #9
 176 00dc EADD     		ble	.L37
 124:Src/limit_pos_detection.c **** 	
 177              		.loc 1 124 0
 178 00de 0021     		movs	r1, #0
 179 00e0 1160     		str	r1, [r2]
 129:Src/limit_pos_detection.c **** 	}
 180              		.loc 1 129 0
 181 00e2 8348     		ldr	r0, .L40+4
 128:Src/limit_pos_detection.c **** 		g_current_array[i] = g_current_array[i+1];
 182              		.loc 1 128 0
 183 00e4 834A     		ldr	r2, .L40+8
 184 00e6 0346     		mov	r3, r0
 185 00e8 9446     		mov	ip, r2
 186              	.LVL6:
 187              	.L18:
 128:Src/limit_pos_detection.c **** 		g_current_array[i] = g_current_array[i+1];
 188              		.loc 1 128 0 is_stmt 0 discriminator 3
 189 00ea 8E46     		mov	lr, r1
 190 00ec 0131     		adds	r1, r1, #1
 191              	.LVL7:
 126:Src/limit_pos_detection.c **** 	{
 192              		.loc 1 126 0 is_stmt 1 discriminator 3
 193 00ee 0729     		cmp	r1, #7
 128:Src/limit_pos_detection.c **** 		g_current_array[i] = g_current_array[i+1];
 194              		.loc 1 128 0 discriminator 3
 195 00f0 32F81190 		ldrh	r9, [r2, r1, lsl #1]
 196 00f4 22F81E90 		strh	r9, [r2, lr, lsl #1]	@ movhi
 129:Src/limit_pos_detection.c **** 	}
 197              		.loc 1 129 0 discriminator 3
 198 00f8 30F81190 		ldrh	r9, [r0, r1, lsl #1]
 199 00fc 20F81E90 		strh	r9, [r0, lr, lsl #1]	@ movhi
 200              	.LVL8:
 126:Src/limit_pos_detection.c **** 	{
 201              		.loc 1 126 0 discriminator 3
 202 0100 F3D1     		bne	.L18
 131:Src/limit_pos_detection.c **** 	g_current_array[7] = current_set;
 203              		.loc 1 131 0
 204 0102 A2F80E80 		strh	r8, [r2, #14]	@ movhi
 132:Src/limit_pos_detection.c **** 	g_pos_act_average = (g_pos_act_array[0]+g_pos_act_array[1]+g_pos_act_array[2]+g_pos_act_array[3]
 205              		.loc 1 132 0
 206 0106 C781     		strh	r7, [r0, #14]	@ movhi
 133:Src/limit_pos_detection.c **** 										+g_pos_act_array[4]+g_pos_act_array[5]+g_pos_act_array[6]+g_pos_act_array[7])/8;
 207              		.loc 1 133 0
 208 0108 B2F80090 		ldrh	r9, [r2]
 209 010c B2F802A0 		ldrh	r10, [r2, #2]
 210 0110 B2F80480 		ldrh	r8, [r2, #4]
 211 0114 B2F806E0 		ldrh	lr, [r2, #6]
ARM GAS  C:\Users\82057\AppData\Local\Temp\ccgkqEJ6.s 			page 9


 134:Src/limit_pos_detection.c **** 	g_posNotChange = 1;
 212              		.loc 1 134 0
 213 0118 1789     		ldrh	r7, [r2, #8]
 214 011a 5089     		ldrh	r0, [r2, #10]
 215 011c 9189     		ldrh	r1, [r2, #12]
 216              	.LVL9:
 217 011e D289     		ldrh	r2, [r2, #14]
 133:Src/limit_pos_detection.c **** 										+g_pos_act_array[4]+g_pos_act_array[5]+g_pos_act_array[6]+g_pos_act_array[7])/8;
 218              		.loc 1 133 0
 219 0120 0FFA8AFA 		sxth	r10, r10
 220 0124 0AFA89F9 		sxtah	r9, r10, r9
 221 0128 09FA88F8 		sxtah	r8, r9, r8
 222 012c 08FA8EFE 		sxtah	lr, r8, lr
 134:Src/limit_pos_detection.c **** 	g_posNotChange = 1;
 223              		.loc 1 134 0
 224 0130 0EFA87F7 		sxtah	r7, lr, r7
 225 0134 07FA80F0 		sxtah	r0, r7, r0
 226 0138 00FA81F1 		sxtah	r1, r0, r1
 227 013c 01FA82F2 		sxtah	r2, r1, r2
 228 0140 0821     		movs	r1, #8
 229 0142 92FBF1F2 		sdiv	r2, r2, r1
 133:Src/limit_pos_detection.c **** 										+g_pos_act_array[4]+g_pos_act_array[5]+g_pos_act_array[6]+g_pos_act_array[7])/8;
 230              		.loc 1 133 0
 231 0146 6C49     		ldr	r1, .L40+12
 135:Src/limit_pos_detection.c **** 	for(i=0;i<8;i++)
 232              		.loc 1 135 0
 233 0148 6C48     		ldr	r0, .L40+16
 133:Src/limit_pos_detection.c **** 										+g_pos_act_array[4]+g_pos_act_array[5]+g_pos_act_array[6]+g_pos_act_array[7])/8;
 234              		.loc 1 133 0
 235 014a 12B2     		sxth	r2, r2
 236 014c 0A80     		strh	r2, [r1]	@ movhi
 135:Src/limit_pos_detection.c **** 	for(i=0;i<8;i++)
 237              		.loc 1 135 0
 238 014e 0122     		movs	r2, #1
 239 0150 0270     		strb	r2, [r0]
 240              	.LVL10:
 241 0152 0027     		movs	r7, #0
 242              	.LVL11:
 243              	.L23:
 138:Src/limit_pos_detection.c **** 		{
 244              		.loc 1 138 0
 245 0154 0A88     		ldrh	r2, [r1]
 246 0156 3CF817E0 		ldrh	lr, [ip, r7, lsl #1]
 247 015a 12B2     		sxth	r2, r2
 248 015c 0FFA8EFE 		sxth	lr, lr
 249 0160 A2EB0E02 		sub	r2, r2, lr
 250 0164 002A     		cmp	r2, #0
 251 0166 B5BF     		itete	lt
 252 0168 3CF81720 		ldrhlt	r2, [ip, r7, lsl #1]
 253 016c 0A88     		ldrhge	r2, [r1]
 254 016e B1F800E0 		ldrhlt	lr, [r1]
 255 0172 3CF817E0 		ldrhge	lr, [ip, r7, lsl #1]
 256 0176 B4BF     		ite	lt
 257 0178 12B2     		sxthlt	r2, r2
 258 017a 12B2     		sxthge	r2, r2
 259 017c 0FFA8EFE 		sxth	lr, lr
 260 0180 A2EB0E02 		sub	r2, r2, lr
ARM GAS  C:\Users\82057\AppData\Local\Temp\ccgkqEJ6.s 			page 10


 261 0184 0A2A     		cmp	r2, #10
 262 0186 D4BF     		ite	le
 263 0188 0022     		movle	r2, #0
 264 018a 0122     		movgt	r2, #1
 265 018c 002A     		cmp	r2, #0
 266 018e 00F0A780 		beq	.L21
 141:Src/limit_pos_detection.c **** 			break;
 267              		.loc 1 141 0
 268 0192 0022     		movs	r2, #0
 269 0194 0270     		strb	r2, [r0]
 270              	.LVL12:
 271              	.L22:
 149:Src/limit_pos_detection.c **** 	{
 272              		.loc 1 149 0
 273 0196 628C     		ldrh	r2, [r4, #34]
 274 0198 40F23237 		movw	r7, #818
 275 019c 12B2     		sxth	r2, r2
 276 019e BA42     		cmp	r2, r7
 151:Src/limit_pos_detection.c **** 	}
 277              		.loc 1 151 0
 278 01a0 DCBF     		itt	le
 279 01a2 40F23332 		movwle	r2, #819
 280 01a6 6284     		strhle	r2, [r4, #34]	@ movhi
 154:Src/limit_pos_detection.c **** 	{
 281              		.loc 1 154 0
 282 01a8 628C     		ldrh	r2, [r4, #34]
 283 01aa 42F26667 		movw	r7, #9830
 284 01ae 12B2     		sxth	r2, r2
 285 01b0 BA42     		cmp	r2, r7
 156:Src/limit_pos_detection.c **** 	}
 286              		.loc 1 156 0
 287 01b2 C8BF     		it	gt
 288 01b4 6784     		strhgt	r7, [r4, #34]	@ movhi
 159:Src/limit_pos_detection.c **** 	{
 289              		.loc 1 159 0
 290 01b6 A28C     		ldrh	r2, [r4, #36]
 291 01b8 514F     		ldr	r7, .L40+20
 292 01ba 12B2     		sxth	r2, r2
 293 01bc BA42     		cmp	r2, r7
 161:Src/limit_pos_detection.c **** 	}
 294              		.loc 1 161 0
 295 01be BCBF     		itt	lt
 296 01c0 4DF69A12 		movwlt	r2, #55706
 297 01c4 A284     		strhlt	r2, [r4, #36]	@ movhi
 164:Src/limit_pos_detection.c **** 	{
 298              		.loc 1 164 0
 299 01c6 A28C     		ldrh	r2, [r4, #36]
 300 01c8 4E4F     		ldr	r7, .L40+24
 301 01ca 12B2     		sxth	r2, r2
 302 01cc BA42     		cmp	r2, r7
 166:Src/limit_pos_detection.c **** 	}
 303              		.loc 1 166 0
 304 01ce A4BF     		itt	ge
 305 01d0 4FF6CD42 		movwge	r2, #64717
 306 01d4 A284     		strhge	r2, [r4, #36]	@ movhi
 171:Src/limit_pos_detection.c **** 		&&g_current_array[1]>= g_CmdMap[CMD_CUR_UPPER_LIMIT_PU]
 307              		.loc 1 171 0
ARM GAS  C:\Users\82057\AppData\Local\Temp\ccgkqEJ6.s 			page 11


 308 01d6 1F88     		ldrh	r7, [r3]
 309 01d8 628C     		ldrh	r2, [r4, #34]
 310 01da 3FB2     		sxth	r7, r7
 311 01dc 12B2     		sxth	r2, r2
 312 01de 9742     		cmp	r7, r2
 313 01e0 36DB     		blt	.L28
 172:Src/limit_pos_detection.c **** 		&&g_current_array[2]>= g_CmdMap[CMD_CUR_UPPER_LIMIT_PU]
 314              		.loc 1 172 0
 315 01e2 5F88     		ldrh	r7, [r3, #2]
 316 01e4 628C     		ldrh	r2, [r4, #34]
 317 01e6 3FB2     		sxth	r7, r7
 318 01e8 12B2     		sxth	r2, r2
 319 01ea 9742     		cmp	r7, r2
 320 01ec 30DB     		blt	.L28
 173:Src/limit_pos_detection.c **** 		&&g_current_array[3]>= g_CmdMap[CMD_CUR_UPPER_LIMIT_PU]
 321              		.loc 1 173 0
 322 01ee 9F88     		ldrh	r7, [r3, #4]
 323 01f0 628C     		ldrh	r2, [r4, #34]
 324 01f2 3FB2     		sxth	r7, r7
 325 01f4 12B2     		sxth	r2, r2
 326 01f6 9742     		cmp	r7, r2
 327 01f8 2ADB     		blt	.L28
 174:Src/limit_pos_detection.c **** 		&&g_current_array[4]>= g_CmdMap[CMD_CUR_UPPER_LIMIT_PU]
 328              		.loc 1 174 0
 329 01fa DF88     		ldrh	r7, [r3, #6]
 330 01fc 628C     		ldrh	r2, [r4, #34]
 331 01fe 3FB2     		sxth	r7, r7
 332 0200 12B2     		sxth	r2, r2
 333 0202 9742     		cmp	r7, r2
 334 0204 24DB     		blt	.L28
 175:Src/limit_pos_detection.c **** 		&&g_current_array[5]>= g_CmdMap[CMD_CUR_UPPER_LIMIT_PU]
 335              		.loc 1 175 0
 336 0206 1F89     		ldrh	r7, [r3, #8]
 337 0208 628C     		ldrh	r2, [r4, #34]
 338 020a 3FB2     		sxth	r7, r7
 339 020c 12B2     		sxth	r2, r2
 340 020e 9742     		cmp	r7, r2
 341 0210 1EDB     		blt	.L28
 176:Src/limit_pos_detection.c **** 		&&g_current_array[6]>= g_CmdMap[CMD_CUR_UPPER_LIMIT_PU]
 342              		.loc 1 176 0
 343 0212 5F89     		ldrh	r7, [r3, #10]
 344 0214 628C     		ldrh	r2, [r4, #34]
 345 0216 3FB2     		sxth	r7, r7
 346 0218 12B2     		sxth	r2, r2
 347 021a 9742     		cmp	r7, r2
 348 021c 18DB     		blt	.L28
 177:Src/limit_pos_detection.c **** 		&&g_current_array[7]>= g_CmdMap[CMD_CUR_UPPER_LIMIT_PU]
 349              		.loc 1 177 0
 350 021e 9F89     		ldrh	r7, [r3, #12]
 351 0220 628C     		ldrh	r2, [r4, #34]
 352 0222 3FB2     		sxth	r7, r7
 353 0224 12B2     		sxth	r2, r2
 354 0226 9742     		cmp	r7, r2
 355 0228 12DB     		blt	.L28
 178:Src/limit_pos_detection.c **** 		&&g_posNotChange == 1
 356              		.loc 1 178 0
 357 022a DF89     		ldrh	r7, [r3, #14]
ARM GAS  C:\Users\82057\AppData\Local\Temp\ccgkqEJ6.s 			page 12


 358 022c 628C     		ldrh	r2, [r4, #34]
 359 022e 3FB2     		sxth	r7, r7
 360 0230 12B2     		sxth	r2, r2
 361 0232 9742     		cmp	r7, r2
 362 0234 0CDB     		blt	.L28
 179:Src/limit_pos_detection.c **** 		&&g_CmdMap[TAG_MOTOR_ENABLE] == 1
 363              		.loc 1 179 0
 364 0236 0278     		ldrb	r2, [r0]	@ zero_extendqisi2
 365 0238 012A     		cmp	r2, #1
 366 023a 09D1     		bne	.L28
 180:Src/limit_pos_detection.c **** 	)
 367              		.loc 1 180 0
 368 023c B4F80222 		ldrh	r2, [r4, #514]
 369 0240 12B2     		sxth	r2, r2
 370 0242 012A     		cmp	r2, #1
 371 0244 04D1     		bne	.L28
 183:Src/limit_pos_detection.c **** 		g_reachUpperLimit = 1;
 372              		.loc 1 183 0
 373 0246 0A88     		ldrh	r2, [r1]
 374 0248 E285     		strh	r2, [r4, #46]	@ movhi
 184:Src/limit_pos_detection.c **** 		g_CmdMap[CMD_PAUSE] = 1;
 375              		.loc 1 184 0
 376 024a 0122     		movs	r2, #1
 377 024c 3270     		strb	r2, [r6]
 185:Src/limit_pos_detection.c **** 	}
 378              		.loc 1 185 0
 379 024e A282     		strh	r2, [r4, #20]	@ movhi
 380              	.L28:
 187:Src/limit_pos_detection.c **** 		&&g_current_array[1]<= g_CmdMap[CMD_CUR_LOWER_LIMIT_PU]
 381              		.loc 1 187 0
 382 0250 1E88     		ldrh	r6, [r3]
 383 0252 A28C     		ldrh	r2, [r4, #36]
 384 0254 36B2     		sxth	r6, r6
 385 0256 12B2     		sxth	r2, r2
 386 0258 9642     		cmp	r6, r2
 387 025a 3FF70DAF 		bgt	.L1
 188:Src/limit_pos_detection.c **** 		&&g_current_array[2]<= g_CmdMap[CMD_CUR_LOWER_LIMIT_PU]
 388              		.loc 1 188 0
 389 025e 5E88     		ldrh	r6, [r3, #2]
 390 0260 A28C     		ldrh	r2, [r4, #36]
 391 0262 36B2     		sxth	r6, r6
 392 0264 12B2     		sxth	r2, r2
 393 0266 9642     		cmp	r6, r2
 394 0268 3FF706AF 		bgt	.L1
 189:Src/limit_pos_detection.c **** 		&&g_current_array[3]<= g_CmdMap[CMD_CUR_LOWER_LIMIT_PU]
 395              		.loc 1 189 0
 396 026c 9E88     		ldrh	r6, [r3, #4]
 397 026e A28C     		ldrh	r2, [r4, #36]
 398 0270 36B2     		sxth	r6, r6
 399 0272 12B2     		sxth	r2, r2
 400 0274 9642     		cmp	r6, r2
 401 0276 3FF7FFAE 		bgt	.L1
 190:Src/limit_pos_detection.c **** 		&&g_current_array[4]<= g_CmdMap[CMD_CUR_LOWER_LIMIT_PU]
 402              		.loc 1 190 0
 403 027a DE88     		ldrh	r6, [r3, #6]
 404 027c A28C     		ldrh	r2, [r4, #36]
 405 027e 36B2     		sxth	r6, r6
ARM GAS  C:\Users\82057\AppData\Local\Temp\ccgkqEJ6.s 			page 13


 406 0280 12B2     		sxth	r2, r2
 407 0282 9642     		cmp	r6, r2
 408 0284 3FF7F8AE 		bgt	.L1
 191:Src/limit_pos_detection.c **** 		&&g_current_array[5]<= g_CmdMap[CMD_CUR_LOWER_LIMIT_PU]
 409              		.loc 1 191 0
 410 0288 1E89     		ldrh	r6, [r3, #8]
 411 028a A28C     		ldrh	r2, [r4, #36]
 412 028c 36B2     		sxth	r6, r6
 413 028e 12B2     		sxth	r2, r2
 414 0290 9642     		cmp	r6, r2
 415 0292 3FF7F1AE 		bgt	.L1
 192:Src/limit_pos_detection.c **** 		&&g_current_array[6]<= g_CmdMap[CMD_CUR_LOWER_LIMIT_PU]
 416              		.loc 1 192 0
 417 0296 5E89     		ldrh	r6, [r3, #10]
 418 0298 A28C     		ldrh	r2, [r4, #36]
 419 029a 36B2     		sxth	r6, r6
 420 029c 12B2     		sxth	r2, r2
 421 029e 9642     		cmp	r6, r2
 422 02a0 3FF7EAAE 		bgt	.L1
 193:Src/limit_pos_detection.c **** 		&&g_current_array[7]<= g_CmdMap[CMD_CUR_LOWER_LIMIT_PU]
 423              		.loc 1 193 0
 424 02a4 9E89     		ldrh	r6, [r3, #12]
 425 02a6 A28C     		ldrh	r2, [r4, #36]
 426 02a8 36B2     		sxth	r6, r6
 427 02aa 12B2     		sxth	r2, r2
 428 02ac 9642     		cmp	r6, r2
 429 02ae 3FF7E3AE 		bgt	.L1
 194:Src/limit_pos_detection.c **** 		&&g_posNotChange == 1
 430              		.loc 1 194 0
 431 02b2 DA89     		ldrh	r2, [r3, #14]
 432 02b4 A38C     		ldrh	r3, [r4, #36]
 433 02b6 12B2     		sxth	r2, r2
 434 02b8 1BB2     		sxth	r3, r3
 435 02ba 9A42     		cmp	r2, r3
 436 02bc 3FF7DCAE 		bgt	.L1
 195:Src/limit_pos_detection.c **** 		&&g_CmdMap[TAG_MOTOR_ENABLE] == 1
 437              		.loc 1 195 0
 438 02c0 0378     		ldrb	r3, [r0]	@ zero_extendqisi2
 439 02c2 012B     		cmp	r3, #1
 440 02c4 7FF4D8AE 		bne	.L1
 196:Src/limit_pos_detection.c **** 	)
 441              		.loc 1 196 0
 442 02c8 B4F80232 		ldrh	r3, [r4, #514]
 443 02cc 1BB2     		sxth	r3, r3
 444 02ce 012B     		cmp	r3, #1
 445 02d0 7FF4D2AE 		bne	.L1
 199:Src/limit_pos_detection.c **** 		g_reachLowerLimit = 1;
 446              		.loc 1 199 0
 447 02d4 0B88     		ldrh	r3, [r1]
 448 02d6 2386     		strh	r3, [r4, #48]	@ movhi
 200:Src/limit_pos_detection.c **** 		g_CmdMap[CMD_PAUSE] = 1;
 449              		.loc 1 200 0
 450 02d8 0123     		movs	r3, #1
 451 02da 2B70     		strb	r3, [r5]
 201:Src/limit_pos_detection.c **** 	}	
 452              		.loc 1 201 0
 453 02dc A382     		strh	r3, [r4, #20]	@ movhi
ARM GAS  C:\Users\82057\AppData\Local\Temp\ccgkqEJ6.s 			page 14


 454 02de CBE6     		b	.L1
 455              	.LVL13:
 456              	.L21:
 457 02e0 0137     		adds	r7, r7, #1
 458              	.LVL14:
 136:Src/limit_pos_detection.c **** 	{
 459              		.loc 1 136 0 discriminator 2
 460 02e2 082F     		cmp	r7, #8
 461 02e4 7FF436AF 		bne	.L23
 462 02e8 55E7     		b	.L22
 463              	.L41:
 464 02ea 00BF     		.align	2
 465              	.L40:
 466 02ec 00000000 		.word	.LANCHOR3
 467 02f0 00000000 		.word	.LANCHOR5
 468 02f4 00000000 		.word	.LANCHOR4
 469 02f8 00000000 		.word	.LANCHOR6
 470 02fc 00000000 		.word	.LANCHOR7
 471 0300 9AD9FFFF 		.word	-9830
 472 0304 CEFCFFFF 		.word	-818
 473              		.cfi_endproc
 474              	.LFE333:
 476              		.section	.text.clear_limit_event,"ax",%progbits
 477              		.align	1
 478              		.global	clear_limit_event
 479              		.syntax unified
 480              		.thumb
 481              		.thumb_func
 482              		.fpu fpv4-sp-d16
 484              	clear_limit_event:
 485              	.LFB334:
 219:Src/limit_pos_detection.c **** 
 220:Src/limit_pos_detection.c **** 
 221:Src/limit_pos_detection.c **** 
 222:Src/limit_pos_detection.c **** 
 223:Src/limit_pos_detection.c **** void clear_limit_event(void)
 224:Src/limit_pos_detection.c **** {
 486              		.loc 1 224 0
 487              		.cfi_startproc
 488              		@ args = 0, pretend = 0, frame = 0
 489              		@ frame_needed = 0, uses_anonymous_args = 0
 490              		@ link register save eliminated.
 225:Src/limit_pos_detection.c **** 	g_reachLowerLimit = 0;
 491              		.loc 1 225 0
 492 0000 024A     		ldr	r2, .L43
 493 0002 0023     		movs	r3, #0
 494 0004 1370     		strb	r3, [r2]
 226:Src/limit_pos_detection.c **** 	g_reachUpperLimit = 0;
 495              		.loc 1 226 0
 496 0006 024A     		ldr	r2, .L43+4
 497 0008 1370     		strb	r3, [r2]
 227:Src/limit_pos_detection.c **** }
 498              		.loc 1 227 0
 499 000a 7047     		bx	lr
 500              	.L44:
 501              		.align	2
 502              	.L43:
ARM GAS  C:\Users\82057\AppData\Local\Temp\ccgkqEJ6.s 			page 15


 503 000c 00000000 		.word	.LANCHOR1
 504 0010 00000000 		.word	.LANCHOR0
 505              		.cfi_endproc
 506              	.LFE334:
 508              		.global	g_posNotChange
 509              		.global	g_reachLowerLimit
 510              		.global	g_reachUpperLimit
 511              		.global	g_current_average
 512              		.global	g_current_array
 513              		.global	g_pos_act_average
 514              		.global	g_pos_act_array
 515              		.section	.bss.g_current_array,"aw",%nobits
 516              		.align	1
 517              		.set	.LANCHOR5,. + 0
 520              	g_current_array:
 521 0000 00000000 		.space	16
 521      00000000 
 521      00000000 
 521      00000000 
 522              		.section	.bss.g_current_average,"aw",%nobits
 523              		.align	1
 526              	g_current_average:
 527 0000 0000     		.space	2
 528              		.section	.bss.g_posNotChange,"aw",%nobits
 529              		.set	.LANCHOR7,. + 0
 532              	g_posNotChange:
 533 0000 00       		.space	1
 534              		.section	.bss.g_pos_act_array,"aw",%nobits
 535              		.align	1
 536              		.set	.LANCHOR4,. + 0
 539              	g_pos_act_array:
 540 0000 00000000 		.space	16
 540      00000000 
 540      00000000 
 540      00000000 
 541              		.section	.bss.g_pos_act_average,"aw",%nobits
 542              		.align	1
 543              		.set	.LANCHOR6,. + 0
 546              	g_pos_act_average:
 547 0000 0000     		.space	2
 548              		.section	.bss.g_reachLowerLimit,"aw",%nobits
 549              		.set	.LANCHOR1,. + 0
 552              	g_reachLowerLimit:
 553 0000 00       		.space	1
 554              		.section	.bss.g_reachUpperLimit,"aw",%nobits
 555              		.set	.LANCHOR0,. + 0
 558              	g_reachUpperLimit:
 559 0000 00       		.space	1
 560              		.section	.bss.repeat_cnt.11857,"aw",%nobits
 561              		.align	2
 562              		.set	.LANCHOR3,. + 0
 565              	repeat_cnt.11857:
 566 0000 00000000 		.space	4
 567              		.section	.bss.time_after_power_on.11856,"aw",%nobits
 568              		.align	2
 569              		.set	.LANCHOR2,. + 0
 572              	time_after_power_on.11856:
ARM GAS  C:\Users\82057\AppData\Local\Temp\ccgkqEJ6.s 			page 16


 573 0000 00000000 		.space	4
 574              		.text
 575              	.Letext0:
 576              		.file 2 "c:\\program files (x86)\\gnu tools arm embedded\\7 2018-q2-update\\arm-none-eabi\\include
 577              		.file 3 "c:\\program files (x86)\\gnu tools arm embedded\\7 2018-q2-update\\arm-none-eabi\\include
 578              		.file 4 "Drivers/STM32G4xx_HAL_Driver/Inc/stm32g4xx_hal.h"
 579              		.file 5 "Drivers/CMSIS/Include/core_cm4.h"
 580              		.file 6 "Drivers/CMSIS/Device/ST/STM32G4xx/Include/system_stm32g4xx.h"
 581              		.file 7 "Drivers/CMSIS/Device/ST/STM32G4xx/Include/stm32g431xx.h"
 582              		.file 8 "Drivers/CMSIS/Device/ST/STM32G4xx/Include/stm32g4xx.h"
 583              		.file 9 "Drivers/STM32G4xx_HAL_Driver/Inc/stm32g4xx_hal_def.h"
 584              		.file 10 "Drivers/STM32G4xx_HAL_Driver/Inc/stm32g4xx_hal_dma.h"
 585              		.file 11 "Drivers/STM32G4xx_HAL_Driver/Inc/stm32g4xx_hal_adc.h"
 586              		.file 12 "Drivers/STM32G4xx_HAL_Driver/Inc/stm32g4xx_hal_flash.h"
 587              		.file 13 "Drivers/STM32G4xx_HAL_Driver/Inc/stm32g4xx_hal_spi.h"
 588              		.file 14 "Drivers/STM32G4xx_HAL_Driver/Inc/stm32g4xx_hal_tim.h"
 589              		.file 15 "Drivers/STM32G4xx_HAL_Driver/Inc/stm32g4xx_hal_uart.h"
 590              		.file 16 "c:\\program files (x86)\\gnu tools arm embedded\\7 2018-q2-update\\arm-none-eabi\\includ
 591              		.file 17 "c:\\program files (x86)\\gnu tools arm embedded\\7 2018-q2-update\\arm-none-eabi\\includ
 592              		.file 18 "c:\\program files (x86)\\gnu tools arm embedded\\7 2018-q2-update\\lib\\gcc\\arm-none-ea
 593              		.file 19 "c:\\program files (x86)\\gnu tools arm embedded\\7 2018-q2-update\\arm-none-eabi\\includ
 594              		.file 20 "c:\\program files (x86)\\gnu tools arm embedded\\7 2018-q2-update\\arm-none-eabi\\includ
 595              		.file 21 "Inc/uart.h"
 596              		.file 22 "Inc/pwm.h"
 597              		.file 23 "Inc/spi_MEncoder.h"
 598              		.file 24 "Inc/adc.h"
 599              		.file 25 "Inc/stm32_math_sin.h"
 600              		.file 26 "Inc/pid.h"
 601              		.file 27 "Inc/profile_joint.h"
 602              		.file 28 "Inc/icmu.h"
 603              		.file 29 "Inc/performance_test.h"
 604              		.file 30 "Inc/global.h"
 605              		.file 31 "Inc/limit_pos_detection.h"
ARM GAS  C:\Users\82057\AppData\Local\Temp\ccgkqEJ6.s 			page 17

