ARM GAS  C:\Users\82057\AppData\Local\Temp\ccODTTN9.s 			page 1


   1              		.cpu cortex-m4
   2              		.eabi_attribute 27, 1
   3              		.eabi_attribute 28, 1
   4              		.eabi_attribute 20, 1
   5              		.eabi_attribute 21, 1
   6              		.eabi_attribute 23, 3
   7              		.eabi_attribute 24, 1
   8              		.eabi_attribute 25, 1
   9              		.eabi_attribute 26, 1
  10              		.eabi_attribute 30, 1
  11              		.eabi_attribute 34, 1
  12              		.eabi_attribute 18, 4
  13              		.file	"stm32g4xx_hal_rcc.c"
  14              		.text
  15              	.Ltext0:
  16              		.cfi_sections	.debug_frame
  17              		.section	.text.RCC_GetSysClockFreqFromPLLSource,"ax",%progbits
  18              		.align	1
  19              		.syntax unified
  20              		.thumb
  21              		.thumb_func
  22              		.fpu fpv4-sp-d16
  24              	RCC_GetSysClockFreqFromPLLSource:
  25              	.LFB344:
  26              		.file 1 "Drivers/STM32G4xx_HAL_Driver/Src/stm32g4xx_hal_rcc.c"
   1:Drivers/STM32G4xx_HAL_Driver/Src/stm32g4xx_hal_rcc.c **** /**
   2:Drivers/STM32G4xx_HAL_Driver/Src/stm32g4xx_hal_rcc.c ****   ******************************************************************************
   3:Drivers/STM32G4xx_HAL_Driver/Src/stm32g4xx_hal_rcc.c ****   * @file    stm32g4xx_hal_rcc.c
   4:Drivers/STM32G4xx_HAL_Driver/Src/stm32g4xx_hal_rcc.c ****   * @author  MCD Application Team
   5:Drivers/STM32G4xx_HAL_Driver/Src/stm32g4xx_hal_rcc.c ****   * @brief   RCC HAL module driver.
   6:Drivers/STM32G4xx_HAL_Driver/Src/stm32g4xx_hal_rcc.c ****   *          This file provides firmware functions to manage the following
   7:Drivers/STM32G4xx_HAL_Driver/Src/stm32g4xx_hal_rcc.c ****   *          functionalities of the Reset and Clock Control (RCC) peripheral:
   8:Drivers/STM32G4xx_HAL_Driver/Src/stm32g4xx_hal_rcc.c ****   *           + Initialization and de-initialization functions
   9:Drivers/STM32G4xx_HAL_Driver/Src/stm32g4xx_hal_rcc.c ****   *           + Peripheral Control functions
  10:Drivers/STM32G4xx_HAL_Driver/Src/stm32g4xx_hal_rcc.c ****   *
  11:Drivers/STM32G4xx_HAL_Driver/Src/stm32g4xx_hal_rcc.c ****   @verbatim
  12:Drivers/STM32G4xx_HAL_Driver/Src/stm32g4xx_hal_rcc.c ****   ==============================================================================
  13:Drivers/STM32G4xx_HAL_Driver/Src/stm32g4xx_hal_rcc.c ****                       ##### RCC specific features #####
  14:Drivers/STM32G4xx_HAL_Driver/Src/stm32g4xx_hal_rcc.c ****   ==============================================================================
  15:Drivers/STM32G4xx_HAL_Driver/Src/stm32g4xx_hal_rcc.c ****     [..]
  16:Drivers/STM32G4xx_HAL_Driver/Src/stm32g4xx_hal_rcc.c ****       After reset the device is running from High Speed Internal oscillator
  17:Drivers/STM32G4xx_HAL_Driver/Src/stm32g4xx_hal_rcc.c ****       (16 MHz) with Flash 0 wait state. Flash prefetch buffer, D-Cache
  18:Drivers/STM32G4xx_HAL_Driver/Src/stm32g4xx_hal_rcc.c ****       and I-Cache are disabled, and all peripherals are off except internal
  19:Drivers/STM32G4xx_HAL_Driver/Src/stm32g4xx_hal_rcc.c ****       SRAM, Flash and JTAG.
  20:Drivers/STM32G4xx_HAL_Driver/Src/stm32g4xx_hal_rcc.c **** 
  21:Drivers/STM32G4xx_HAL_Driver/Src/stm32g4xx_hal_rcc.c ****       (+) There is no prescaler on High speed (AHBs) and Low speed (APBs) buses:
  22:Drivers/STM32G4xx_HAL_Driver/Src/stm32g4xx_hal_rcc.c ****           all peripherals mapped on these buses are running at HSI speed.
  23:Drivers/STM32G4xx_HAL_Driver/Src/stm32g4xx_hal_rcc.c ****       (+) The clock for all peripherals is switched off, except the SRAM and FLASH.
  24:Drivers/STM32G4xx_HAL_Driver/Src/stm32g4xx_hal_rcc.c ****       (+) All GPIOs are in analog mode, except the JTAG pins which
  25:Drivers/STM32G4xx_HAL_Driver/Src/stm32g4xx_hal_rcc.c ****           are assigned to be used for debug purpose.
  26:Drivers/STM32G4xx_HAL_Driver/Src/stm32g4xx_hal_rcc.c **** 
  27:Drivers/STM32G4xx_HAL_Driver/Src/stm32g4xx_hal_rcc.c ****     [..]
  28:Drivers/STM32G4xx_HAL_Driver/Src/stm32g4xx_hal_rcc.c ****       Once the device started from reset, the user application has to:
  29:Drivers/STM32G4xx_HAL_Driver/Src/stm32g4xx_hal_rcc.c ****       (+) Configure the clock source to be used to drive the System clock
  30:Drivers/STM32G4xx_HAL_Driver/Src/stm32g4xx_hal_rcc.c ****           (if the application needs higher frequency/performance)
  31:Drivers/STM32G4xx_HAL_Driver/Src/stm32g4xx_hal_rcc.c ****       (+) Configure the System clock frequency and Flash settings
  32:Drivers/STM32G4xx_HAL_Driver/Src/stm32g4xx_hal_rcc.c ****       (+) Configure the AHB and APB buses prescalers
ARM GAS  C:\Users\82057\AppData\Local\Temp\ccODTTN9.s 			page 2


  33:Drivers/STM32G4xx_HAL_Driver/Src/stm32g4xx_hal_rcc.c ****       (+) Enable the clock for the peripheral(s) to be used
  34:Drivers/STM32G4xx_HAL_Driver/Src/stm32g4xx_hal_rcc.c ****       (+) Configure the clock source(s) for peripherals which clocks are not
  35:Drivers/STM32G4xx_HAL_Driver/Src/stm32g4xx_hal_rcc.c ****           derived from the System clock (USB, RNG, USART, LPUART, FDCAN, some TIMERs,
  36:Drivers/STM32G4xx_HAL_Driver/Src/stm32g4xx_hal_rcc.c ****           UCPD, I2S, I2C, LPTIM, ADC, QSPI)
  37:Drivers/STM32G4xx_HAL_Driver/Src/stm32g4xx_hal_rcc.c **** 
  38:Drivers/STM32G4xx_HAL_Driver/Src/stm32g4xx_hal_rcc.c ****   @endverbatim
  39:Drivers/STM32G4xx_HAL_Driver/Src/stm32g4xx_hal_rcc.c ****   ******************************************************************************
  40:Drivers/STM32G4xx_HAL_Driver/Src/stm32g4xx_hal_rcc.c ****   * @attention
  41:Drivers/STM32G4xx_HAL_Driver/Src/stm32g4xx_hal_rcc.c ****   *
  42:Drivers/STM32G4xx_HAL_Driver/Src/stm32g4xx_hal_rcc.c ****   * Copyright (c) 2019 STMicroelectronics.
  43:Drivers/STM32G4xx_HAL_Driver/Src/stm32g4xx_hal_rcc.c ****   * All rights reserved.
  44:Drivers/STM32G4xx_HAL_Driver/Src/stm32g4xx_hal_rcc.c ****   *
  45:Drivers/STM32G4xx_HAL_Driver/Src/stm32g4xx_hal_rcc.c ****   * This software is licensed under terms that can be found in the LICENSE file in
  46:Drivers/STM32G4xx_HAL_Driver/Src/stm32g4xx_hal_rcc.c ****   * the root directory of this software component.
  47:Drivers/STM32G4xx_HAL_Driver/Src/stm32g4xx_hal_rcc.c ****   * If no LICENSE file comes with this software, it is provided AS-IS.
  48:Drivers/STM32G4xx_HAL_Driver/Src/stm32g4xx_hal_rcc.c ****   ******************************************************************************
  49:Drivers/STM32G4xx_HAL_Driver/Src/stm32g4xx_hal_rcc.c ****   */
  50:Drivers/STM32G4xx_HAL_Driver/Src/stm32g4xx_hal_rcc.c **** 
  51:Drivers/STM32G4xx_HAL_Driver/Src/stm32g4xx_hal_rcc.c **** /* Includes ------------------------------------------------------------------*/
  52:Drivers/STM32G4xx_HAL_Driver/Src/stm32g4xx_hal_rcc.c **** #include "stm32g4xx_hal.h"
  53:Drivers/STM32G4xx_HAL_Driver/Src/stm32g4xx_hal_rcc.c **** 
  54:Drivers/STM32G4xx_HAL_Driver/Src/stm32g4xx_hal_rcc.c **** /** @addtogroup STM32G4xx_HAL_Driver
  55:Drivers/STM32G4xx_HAL_Driver/Src/stm32g4xx_hal_rcc.c ****   * @{
  56:Drivers/STM32G4xx_HAL_Driver/Src/stm32g4xx_hal_rcc.c ****   */
  57:Drivers/STM32G4xx_HAL_Driver/Src/stm32g4xx_hal_rcc.c **** 
  58:Drivers/STM32G4xx_HAL_Driver/Src/stm32g4xx_hal_rcc.c **** /** @defgroup RCC RCC
  59:Drivers/STM32G4xx_HAL_Driver/Src/stm32g4xx_hal_rcc.c ****   * @brief RCC HAL module driver
  60:Drivers/STM32G4xx_HAL_Driver/Src/stm32g4xx_hal_rcc.c ****   * @{
  61:Drivers/STM32G4xx_HAL_Driver/Src/stm32g4xx_hal_rcc.c ****   */
  62:Drivers/STM32G4xx_HAL_Driver/Src/stm32g4xx_hal_rcc.c **** 
  63:Drivers/STM32G4xx_HAL_Driver/Src/stm32g4xx_hal_rcc.c **** #ifdef HAL_RCC_MODULE_ENABLED
  64:Drivers/STM32G4xx_HAL_Driver/Src/stm32g4xx_hal_rcc.c **** 
  65:Drivers/STM32G4xx_HAL_Driver/Src/stm32g4xx_hal_rcc.c **** /* Private typedef -----------------------------------------------------------*/
  66:Drivers/STM32G4xx_HAL_Driver/Src/stm32g4xx_hal_rcc.c **** /* Private define ------------------------------------------------------------*/
  67:Drivers/STM32G4xx_HAL_Driver/Src/stm32g4xx_hal_rcc.c **** /** @defgroup RCC_Private_Constants RCC Private Constants
  68:Drivers/STM32G4xx_HAL_Driver/Src/stm32g4xx_hal_rcc.c ****  * @{
  69:Drivers/STM32G4xx_HAL_Driver/Src/stm32g4xx_hal_rcc.c ****  */
  70:Drivers/STM32G4xx_HAL_Driver/Src/stm32g4xx_hal_rcc.c **** #define HSE_TIMEOUT_VALUE          HSE_STARTUP_TIMEOUT
  71:Drivers/STM32G4xx_HAL_Driver/Src/stm32g4xx_hal_rcc.c **** #define HSI_TIMEOUT_VALUE          2U                /* 2 ms (minimum Tick + 1) */
  72:Drivers/STM32G4xx_HAL_Driver/Src/stm32g4xx_hal_rcc.c **** #define LSI_TIMEOUT_VALUE          2U                /* 2 ms (minimum Tick + 1) */
  73:Drivers/STM32G4xx_HAL_Driver/Src/stm32g4xx_hal_rcc.c **** #define HSI48_TIMEOUT_VALUE        2U                /* 2 ms (minimum Tick + 1) */
  74:Drivers/STM32G4xx_HAL_Driver/Src/stm32g4xx_hal_rcc.c **** #define PLL_TIMEOUT_VALUE          2U                /* 2 ms (minimum Tick + 1) */
  75:Drivers/STM32G4xx_HAL_Driver/Src/stm32g4xx_hal_rcc.c **** #define CLOCKSWITCH_TIMEOUT_VALUE  5000U             /* 5 s    */
  76:Drivers/STM32G4xx_HAL_Driver/Src/stm32g4xx_hal_rcc.c **** /**
  77:Drivers/STM32G4xx_HAL_Driver/Src/stm32g4xx_hal_rcc.c ****   * @}
  78:Drivers/STM32G4xx_HAL_Driver/Src/stm32g4xx_hal_rcc.c ****   */
  79:Drivers/STM32G4xx_HAL_Driver/Src/stm32g4xx_hal_rcc.c **** 
  80:Drivers/STM32G4xx_HAL_Driver/Src/stm32g4xx_hal_rcc.c **** /* Private macro -------------------------------------------------------------*/
  81:Drivers/STM32G4xx_HAL_Driver/Src/stm32g4xx_hal_rcc.c **** /** @defgroup RCC_Private_Macros RCC Private Macros
  82:Drivers/STM32G4xx_HAL_Driver/Src/stm32g4xx_hal_rcc.c ****   * @{
  83:Drivers/STM32G4xx_HAL_Driver/Src/stm32g4xx_hal_rcc.c ****   */
  84:Drivers/STM32G4xx_HAL_Driver/Src/stm32g4xx_hal_rcc.c **** #define RCC_GET_MCO_GPIO_PIN(__RCC_MCOx__)   ((__RCC_MCOx__) & GPIO_PIN_MASK)
  85:Drivers/STM32G4xx_HAL_Driver/Src/stm32g4xx_hal_rcc.c **** 
  86:Drivers/STM32G4xx_HAL_Driver/Src/stm32g4xx_hal_rcc.c **** #define RCC_GET_MCO_GPIO_AF(__RCC_MCOx__)    (((__RCC_MCOx__) & RCC_MCO_GPIOAF_MASK) >> RCC_MCO_GPI
  87:Drivers/STM32G4xx_HAL_Driver/Src/stm32g4xx_hal_rcc.c **** 
  88:Drivers/STM32G4xx_HAL_Driver/Src/stm32g4xx_hal_rcc.c **** #define RCC_GET_MCO_GPIO_INDEX(__RCC_MCOx__) (((__RCC_MCOx__) & RCC_MCO_GPIOPORT_MASK) >> RCC_MCO_G
  89:Drivers/STM32G4xx_HAL_Driver/Src/stm32g4xx_hal_rcc.c **** 
ARM GAS  C:\Users\82057\AppData\Local\Temp\ccODTTN9.s 			page 3


  90:Drivers/STM32G4xx_HAL_Driver/Src/stm32g4xx_hal_rcc.c **** #define RCC_GET_MCO_GPIO_PORT(__RCC_MCOx__)  (AHB2PERIPH_BASE + ((0x00000400UL) * RCC_GET_MCO_GPIO_
  91:Drivers/STM32G4xx_HAL_Driver/Src/stm32g4xx_hal_rcc.c **** 
  92:Drivers/STM32G4xx_HAL_Driver/Src/stm32g4xx_hal_rcc.c **** #define RCC_PLL_OSCSOURCE_CONFIG(__HAL_RCC_PLLSOURCE__) \
  93:Drivers/STM32G4xx_HAL_Driver/Src/stm32g4xx_hal_rcc.c ****             (MODIFY_REG(RCC->PLLCFGR, RCC_PLLCFGR_PLLSRC, (__HAL_RCC_PLLSOURCE__)))
  94:Drivers/STM32G4xx_HAL_Driver/Src/stm32g4xx_hal_rcc.c **** /**
  95:Drivers/STM32G4xx_HAL_Driver/Src/stm32g4xx_hal_rcc.c ****   * @}
  96:Drivers/STM32G4xx_HAL_Driver/Src/stm32g4xx_hal_rcc.c ****   */
  97:Drivers/STM32G4xx_HAL_Driver/Src/stm32g4xx_hal_rcc.c **** 
  98:Drivers/STM32G4xx_HAL_Driver/Src/stm32g4xx_hal_rcc.c **** /* Private variables ---------------------------------------------------------*/
  99:Drivers/STM32G4xx_HAL_Driver/Src/stm32g4xx_hal_rcc.c **** 
 100:Drivers/STM32G4xx_HAL_Driver/Src/stm32g4xx_hal_rcc.c **** /* Private function prototypes -----------------------------------------------*/
 101:Drivers/STM32G4xx_HAL_Driver/Src/stm32g4xx_hal_rcc.c **** /** @defgroup RCC_Private_Functions RCC Private Functions
 102:Drivers/STM32G4xx_HAL_Driver/Src/stm32g4xx_hal_rcc.c ****   * @{
 103:Drivers/STM32G4xx_HAL_Driver/Src/stm32g4xx_hal_rcc.c ****   */
 104:Drivers/STM32G4xx_HAL_Driver/Src/stm32g4xx_hal_rcc.c **** static uint32_t          RCC_GetSysClockFreqFromPLLSource(void);
 105:Drivers/STM32G4xx_HAL_Driver/Src/stm32g4xx_hal_rcc.c **** /**
 106:Drivers/STM32G4xx_HAL_Driver/Src/stm32g4xx_hal_rcc.c ****   * @}
 107:Drivers/STM32G4xx_HAL_Driver/Src/stm32g4xx_hal_rcc.c ****   */
 108:Drivers/STM32G4xx_HAL_Driver/Src/stm32g4xx_hal_rcc.c **** 
 109:Drivers/STM32G4xx_HAL_Driver/Src/stm32g4xx_hal_rcc.c **** /* Exported functions --------------------------------------------------------*/
 110:Drivers/STM32G4xx_HAL_Driver/Src/stm32g4xx_hal_rcc.c **** 
 111:Drivers/STM32G4xx_HAL_Driver/Src/stm32g4xx_hal_rcc.c **** /** @defgroup RCC_Exported_Functions RCC Exported Functions
 112:Drivers/STM32G4xx_HAL_Driver/Src/stm32g4xx_hal_rcc.c ****   * @{
 113:Drivers/STM32G4xx_HAL_Driver/Src/stm32g4xx_hal_rcc.c ****   */
 114:Drivers/STM32G4xx_HAL_Driver/Src/stm32g4xx_hal_rcc.c **** 
 115:Drivers/STM32G4xx_HAL_Driver/Src/stm32g4xx_hal_rcc.c **** /** @defgroup RCC_Exported_Functions_Group1 Initialization and de-initialization functions
 116:Drivers/STM32G4xx_HAL_Driver/Src/stm32g4xx_hal_rcc.c ****   *  @brief    Initialization and Configuration functions
 117:Drivers/STM32G4xx_HAL_Driver/Src/stm32g4xx_hal_rcc.c ****   *
 118:Drivers/STM32G4xx_HAL_Driver/Src/stm32g4xx_hal_rcc.c ****   @verbatim
 119:Drivers/STM32G4xx_HAL_Driver/Src/stm32g4xx_hal_rcc.c ****  ===============================================================================
 120:Drivers/STM32G4xx_HAL_Driver/Src/stm32g4xx_hal_rcc.c ****            ##### Initialization and de-initialization functions #####
 121:Drivers/STM32G4xx_HAL_Driver/Src/stm32g4xx_hal_rcc.c ****  ===============================================================================
 122:Drivers/STM32G4xx_HAL_Driver/Src/stm32g4xx_hal_rcc.c ****     [..]
 123:Drivers/STM32G4xx_HAL_Driver/Src/stm32g4xx_hal_rcc.c ****       This section provides functions allowing to configure the internal and external oscillators
 124:Drivers/STM32G4xx_HAL_Driver/Src/stm32g4xx_hal_rcc.c ****       (HSE, HSI, LSE, LSI, PLL, CSS and MCO) and the System buses clocks (SYSCLK, AHB, APB1
 125:Drivers/STM32G4xx_HAL_Driver/Src/stm32g4xx_hal_rcc.c ****        and APB2).
 126:Drivers/STM32G4xx_HAL_Driver/Src/stm32g4xx_hal_rcc.c **** 
 127:Drivers/STM32G4xx_HAL_Driver/Src/stm32g4xx_hal_rcc.c ****     [..] Internal/external clock and PLL configuration
 128:Drivers/STM32G4xx_HAL_Driver/Src/stm32g4xx_hal_rcc.c ****          (+) HSI (high-speed internal): 16 MHz factory-trimmed RC used directly or through
 129:Drivers/STM32G4xx_HAL_Driver/Src/stm32g4xx_hal_rcc.c ****              the PLL as System clock source.
 130:Drivers/STM32G4xx_HAL_Driver/Src/stm32g4xx_hal_rcc.c **** 
 131:Drivers/STM32G4xx_HAL_Driver/Src/stm32g4xx_hal_rcc.c ****          (+) LSI (low-speed internal): 32 KHz low consumption RC used as IWDG and/or RTC
 132:Drivers/STM32G4xx_HAL_Driver/Src/stm32g4xx_hal_rcc.c ****              clock source.
 133:Drivers/STM32G4xx_HAL_Driver/Src/stm32g4xx_hal_rcc.c **** 
 134:Drivers/STM32G4xx_HAL_Driver/Src/stm32g4xx_hal_rcc.c ****          (+) HSE (high-speed external): 4 to 48 MHz crystal oscillator used directly or
 135:Drivers/STM32G4xx_HAL_Driver/Src/stm32g4xx_hal_rcc.c ****              through the PLL as System clock source. Can be used also optionally as RTC clock sourc
 136:Drivers/STM32G4xx_HAL_Driver/Src/stm32g4xx_hal_rcc.c **** 
 137:Drivers/STM32G4xx_HAL_Driver/Src/stm32g4xx_hal_rcc.c ****          (+) LSE (low-speed external): 32.768 KHz oscillator used optionally as RTC clock source.
 138:Drivers/STM32G4xx_HAL_Driver/Src/stm32g4xx_hal_rcc.c **** 
 139:Drivers/STM32G4xx_HAL_Driver/Src/stm32g4xx_hal_rcc.c ****          (+) PLL (clocked by HSI, HSE) providing up to three independent output clocks:
 140:Drivers/STM32G4xx_HAL_Driver/Src/stm32g4xx_hal_rcc.c ****            (++) The first output is used to generate the high speed system clock (up to 170 MHz).
 141:Drivers/STM32G4xx_HAL_Driver/Src/stm32g4xx_hal_rcc.c ****            (++) The second output is used to generate the clock for the USB (48 MHz),
 142:Drivers/STM32G4xx_HAL_Driver/Src/stm32g4xx_hal_rcc.c ****                 the QSPI (<= 48 MHz), the FDCAN, the SAI and the I2S.
 143:Drivers/STM32G4xx_HAL_Driver/Src/stm32g4xx_hal_rcc.c ****            (++) The third output is used to generate a clock for ADC
 144:Drivers/STM32G4xx_HAL_Driver/Src/stm32g4xx_hal_rcc.c **** 
 145:Drivers/STM32G4xx_HAL_Driver/Src/stm32g4xx_hal_rcc.c ****          (+) CSS (Clock security system): once enabled, if a HSE clock failure occurs
 146:Drivers/STM32G4xx_HAL_Driver/Src/stm32g4xx_hal_rcc.c ****             (HSE used directly or through PLL as System clock source), the System clock
ARM GAS  C:\Users\82057\AppData\Local\Temp\ccODTTN9.s 			page 4


 147:Drivers/STM32G4xx_HAL_Driver/Src/stm32g4xx_hal_rcc.c ****              is automatically switched to HSI and an interrupt is generated if enabled.
 148:Drivers/STM32G4xx_HAL_Driver/Src/stm32g4xx_hal_rcc.c ****              The interrupt is linked to the Cortex-M4 NMI (Non-Maskable Interrupt)
 149:Drivers/STM32G4xx_HAL_Driver/Src/stm32g4xx_hal_rcc.c ****              exception vector.
 150:Drivers/STM32G4xx_HAL_Driver/Src/stm32g4xx_hal_rcc.c **** 
 151:Drivers/STM32G4xx_HAL_Driver/Src/stm32g4xx_hal_rcc.c ****          (+) MCO (microcontroller clock output): used to output LSI, HSI, LSE, HSE,
 152:Drivers/STM32G4xx_HAL_Driver/Src/stm32g4xx_hal_rcc.c ****              main PLL clock, system clock or RC48 clock (through a configurable prescaler) on PA8 p
 153:Drivers/STM32G4xx_HAL_Driver/Src/stm32g4xx_hal_rcc.c **** 
 154:Drivers/STM32G4xx_HAL_Driver/Src/stm32g4xx_hal_rcc.c ****     [..] System, AHB and APB buses clocks configuration
 155:Drivers/STM32G4xx_HAL_Driver/Src/stm32g4xx_hal_rcc.c ****          (+) Several clock sources can be used to drive the System clock (SYSCLK): HSI,
 156:Drivers/STM32G4xx_HAL_Driver/Src/stm32g4xx_hal_rcc.c ****              HSE and main PLL.
 157:Drivers/STM32G4xx_HAL_Driver/Src/stm32g4xx_hal_rcc.c ****              The AHB clock (HCLK) is derived from System clock through configurable
 158:Drivers/STM32G4xx_HAL_Driver/Src/stm32g4xx_hal_rcc.c ****              prescaler and used to clock the CPU, memory and peripherals mapped
 159:Drivers/STM32G4xx_HAL_Driver/Src/stm32g4xx_hal_rcc.c ****              on AHB bus (DMA, GPIO...). APB1 (PCLK1) and APB2 (PCLK2) clocks are derived
 160:Drivers/STM32G4xx_HAL_Driver/Src/stm32g4xx_hal_rcc.c ****              from AHB clock through configurable prescalers and used to clock
 161:Drivers/STM32G4xx_HAL_Driver/Src/stm32g4xx_hal_rcc.c ****              the peripherals mapped on these buses. You can use
 162:Drivers/STM32G4xx_HAL_Driver/Src/stm32g4xx_hal_rcc.c ****              "HAL_RCC_GetSysClockFreq()" function to retrieve the frequencies of these clocks.
 163:Drivers/STM32G4xx_HAL_Driver/Src/stm32g4xx_hal_rcc.c **** 
 164:Drivers/STM32G4xx_HAL_Driver/Src/stm32g4xx_hal_rcc.c ****          -@- All the peripheral clocks are derived from the System clock (SYSCLK) except:
 165:Drivers/STM32G4xx_HAL_Driver/Src/stm32g4xx_hal_rcc.c **** 
 166:Drivers/STM32G4xx_HAL_Driver/Src/stm32g4xx_hal_rcc.c ****            (+@) RTC: the RTC clock can be derived either from the LSI, LSE or HSE clock
 167:Drivers/STM32G4xx_HAL_Driver/Src/stm32g4xx_hal_rcc.c ****                 divided by 2 to 31.
 168:Drivers/STM32G4xx_HAL_Driver/Src/stm32g4xx_hal_rcc.c ****                 You have to use __HAL_RCC_RTC_ENABLE() and HAL_RCCEx_PeriphCLKConfig() function
 169:Drivers/STM32G4xx_HAL_Driver/Src/stm32g4xx_hal_rcc.c ****                 to configure this clock.
 170:Drivers/STM32G4xx_HAL_Driver/Src/stm32g4xx_hal_rcc.c ****            (+@) USB FS and RNG: USB FS requires a frequency equal to 48 MHz
 171:Drivers/STM32G4xx_HAL_Driver/Src/stm32g4xx_hal_rcc.c ****                 to work correctly, while the RNG peripheral requires a frequency
 172:Drivers/STM32G4xx_HAL_Driver/Src/stm32g4xx_hal_rcc.c ****                 equal or lower than to 48 MHz. This clock is derived of the main PLL
 173:Drivers/STM32G4xx_HAL_Driver/Src/stm32g4xx_hal_rcc.c ****                 through PLLQ divider. You have to enable the peripheral clock and use
 174:Drivers/STM32G4xx_HAL_Driver/Src/stm32g4xx_hal_rcc.c ****                 HAL_RCCEx_PeriphCLKConfig() function to configure this clock.
 175:Drivers/STM32G4xx_HAL_Driver/Src/stm32g4xx_hal_rcc.c ****            (+@) IWDG clock which is always the LSI clock.
 176:Drivers/STM32G4xx_HAL_Driver/Src/stm32g4xx_hal_rcc.c **** 
 177:Drivers/STM32G4xx_HAL_Driver/Src/stm32g4xx_hal_rcc.c **** 
 178:Drivers/STM32G4xx_HAL_Driver/Src/stm32g4xx_hal_rcc.c ****          (+) The maximum frequency of the SYSCLK, HCLK, PCLK1 and PCLK2 is 170 MHz.
 179:Drivers/STM32G4xx_HAL_Driver/Src/stm32g4xx_hal_rcc.c ****              The clock source frequency should be adapted depending on the device voltage range
 180:Drivers/STM32G4xx_HAL_Driver/Src/stm32g4xx_hal_rcc.c ****              as listed in the Reference Manual "Clock source frequency versus voltage scaling" chap
 181:Drivers/STM32G4xx_HAL_Driver/Src/stm32g4xx_hal_rcc.c **** 
 182:Drivers/STM32G4xx_HAL_Driver/Src/stm32g4xx_hal_rcc.c ****   @endverbatim
 183:Drivers/STM32G4xx_HAL_Driver/Src/stm32g4xx_hal_rcc.c **** 
 184:Drivers/STM32G4xx_HAL_Driver/Src/stm32g4xx_hal_rcc.c ****            Table 1. HCLK clock frequency for STM32G4xx devices
 185:Drivers/STM32G4xx_HAL_Driver/Src/stm32g4xx_hal_rcc.c ****            +----------------------------------------------------------------------------+
 186:Drivers/STM32G4xx_HAL_Driver/Src/stm32g4xx_hal_rcc.c ****            | Latency         |            HCLK clock frequency (MHz)                    |
 187:Drivers/STM32G4xx_HAL_Driver/Src/stm32g4xx_hal_rcc.c ****            |                 |----------------------------------------------------------|
 188:Drivers/STM32G4xx_HAL_Driver/Src/stm32g4xx_hal_rcc.c ****            |                 |  voltage range 1  |  voltage range 1  | voltage range 2  |
 189:Drivers/STM32G4xx_HAL_Driver/Src/stm32g4xx_hal_rcc.c ****            |                 | boost mode 1.28 V | normal mode 1.2 V |     1.0 V        |
 190:Drivers/STM32G4xx_HAL_Driver/Src/stm32g4xx_hal_rcc.c ****            |-----------------|-------------------|-------------------|------------------|
 191:Drivers/STM32G4xx_HAL_Driver/Src/stm32g4xx_hal_rcc.c ****            |0WS(1 CPU cycles)|    HCLK <= 34     |    HCLK <= 30     |    HCLK <= 13    |
 192:Drivers/STM32G4xx_HAL_Driver/Src/stm32g4xx_hal_rcc.c ****            |-----------------|-------------------|-------------------|------------------|
 193:Drivers/STM32G4xx_HAL_Driver/Src/stm32g4xx_hal_rcc.c ****            |1WS(2 CPU cycles)|    HCLK <= 68     |    HCLK <= 60     |    HCLK <= 26    |
 194:Drivers/STM32G4xx_HAL_Driver/Src/stm32g4xx_hal_rcc.c ****            |-----------------|-------------------|-------------------|------------------|
 195:Drivers/STM32G4xx_HAL_Driver/Src/stm32g4xx_hal_rcc.c ****            |2WS(3 CPU cycles)|    HCLK <= 102    |    HCLK <= 90     |        -         |
 196:Drivers/STM32G4xx_HAL_Driver/Src/stm32g4xx_hal_rcc.c ****            |-----------------|-------------------|-------------------|------------------|
 197:Drivers/STM32G4xx_HAL_Driver/Src/stm32g4xx_hal_rcc.c ****            |3WS(4 CPU cycles)|    HCLK <= 136    |    HCLK <= 120    |        -         |
 198:Drivers/STM32G4xx_HAL_Driver/Src/stm32g4xx_hal_rcc.c ****            |-----------------|-------------------|-------------------|------------------|
 199:Drivers/STM32G4xx_HAL_Driver/Src/stm32g4xx_hal_rcc.c ****            |4WS(5 CPU cycles)|    HCLK <= 170    |    HCLK <= 150    |        -         |
 200:Drivers/STM32G4xx_HAL_Driver/Src/stm32g4xx_hal_rcc.c ****            +----------------------------------------------------------------------------+
 201:Drivers/STM32G4xx_HAL_Driver/Src/stm32g4xx_hal_rcc.c **** 
 202:Drivers/STM32G4xx_HAL_Driver/Src/stm32g4xx_hal_rcc.c ****   * @{
 203:Drivers/STM32G4xx_HAL_Driver/Src/stm32g4xx_hal_rcc.c ****   */
ARM GAS  C:\Users\82057\AppData\Local\Temp\ccODTTN9.s 			page 5


 204:Drivers/STM32G4xx_HAL_Driver/Src/stm32g4xx_hal_rcc.c **** 
 205:Drivers/STM32G4xx_HAL_Driver/Src/stm32g4xx_hal_rcc.c **** /**
 206:Drivers/STM32G4xx_HAL_Driver/Src/stm32g4xx_hal_rcc.c ****   * @brief  Reset the RCC clock configuration to the default reset state.
 207:Drivers/STM32G4xx_HAL_Driver/Src/stm32g4xx_hal_rcc.c ****   * @note   The default reset state of the clock configuration is given below:
 208:Drivers/STM32G4xx_HAL_Driver/Src/stm32g4xx_hal_rcc.c ****   *            - HSI ON and used as system clock source
 209:Drivers/STM32G4xx_HAL_Driver/Src/stm32g4xx_hal_rcc.c ****   *            - HSE, PLL OFF
 210:Drivers/STM32G4xx_HAL_Driver/Src/stm32g4xx_hal_rcc.c ****   *            - AHB, APB1 and APB2 prescaler set to 1.
 211:Drivers/STM32G4xx_HAL_Driver/Src/stm32g4xx_hal_rcc.c ****   *            - CSS, MCO1 OFF
 212:Drivers/STM32G4xx_HAL_Driver/Src/stm32g4xx_hal_rcc.c ****   *            - All interrupts disabled
 213:Drivers/STM32G4xx_HAL_Driver/Src/stm32g4xx_hal_rcc.c ****   *            - All interrupt and reset flags cleared
 214:Drivers/STM32G4xx_HAL_Driver/Src/stm32g4xx_hal_rcc.c ****   * @note   This function doesn't modify the configuration of the
 215:Drivers/STM32G4xx_HAL_Driver/Src/stm32g4xx_hal_rcc.c ****   *            - Peripheral clocks
 216:Drivers/STM32G4xx_HAL_Driver/Src/stm32g4xx_hal_rcc.c ****   *            - LSI, LSE and RTC clocks
 217:Drivers/STM32G4xx_HAL_Driver/Src/stm32g4xx_hal_rcc.c ****   * @retval HAL status
 218:Drivers/STM32G4xx_HAL_Driver/Src/stm32g4xx_hal_rcc.c ****   */
 219:Drivers/STM32G4xx_HAL_Driver/Src/stm32g4xx_hal_rcc.c **** HAL_StatusTypeDef HAL_RCC_DeInit(void)
 220:Drivers/STM32G4xx_HAL_Driver/Src/stm32g4xx_hal_rcc.c **** {
 221:Drivers/STM32G4xx_HAL_Driver/Src/stm32g4xx_hal_rcc.c ****   uint32_t tickstart;
 222:Drivers/STM32G4xx_HAL_Driver/Src/stm32g4xx_hal_rcc.c **** 
 223:Drivers/STM32G4xx_HAL_Driver/Src/stm32g4xx_hal_rcc.c ****   /* Get Start Tick*/
 224:Drivers/STM32G4xx_HAL_Driver/Src/stm32g4xx_hal_rcc.c ****   tickstart = HAL_GetTick();
 225:Drivers/STM32G4xx_HAL_Driver/Src/stm32g4xx_hal_rcc.c **** 
 226:Drivers/STM32G4xx_HAL_Driver/Src/stm32g4xx_hal_rcc.c ****   /* Set HSION bit to the reset value */
 227:Drivers/STM32G4xx_HAL_Driver/Src/stm32g4xx_hal_rcc.c ****   SET_BIT(RCC->CR, RCC_CR_HSION);
 228:Drivers/STM32G4xx_HAL_Driver/Src/stm32g4xx_hal_rcc.c **** 
 229:Drivers/STM32G4xx_HAL_Driver/Src/stm32g4xx_hal_rcc.c ****   /* Wait till HSI is ready */
 230:Drivers/STM32G4xx_HAL_Driver/Src/stm32g4xx_hal_rcc.c ****   while (READ_BIT(RCC->CR, RCC_CR_HSIRDY) == 0U)
 231:Drivers/STM32G4xx_HAL_Driver/Src/stm32g4xx_hal_rcc.c ****   {
 232:Drivers/STM32G4xx_HAL_Driver/Src/stm32g4xx_hal_rcc.c ****     if ((HAL_GetTick() - tickstart) > HSI_TIMEOUT_VALUE)
 233:Drivers/STM32G4xx_HAL_Driver/Src/stm32g4xx_hal_rcc.c ****     {
 234:Drivers/STM32G4xx_HAL_Driver/Src/stm32g4xx_hal_rcc.c ****       return HAL_TIMEOUT;
 235:Drivers/STM32G4xx_HAL_Driver/Src/stm32g4xx_hal_rcc.c ****     }
 236:Drivers/STM32G4xx_HAL_Driver/Src/stm32g4xx_hal_rcc.c ****   }
 237:Drivers/STM32G4xx_HAL_Driver/Src/stm32g4xx_hal_rcc.c **** 
 238:Drivers/STM32G4xx_HAL_Driver/Src/stm32g4xx_hal_rcc.c ****  /* Set HSITRIM[6:0] bits to the reset value */
 239:Drivers/STM32G4xx_HAL_Driver/Src/stm32g4xx_hal_rcc.c ****   SET_BIT(RCC->ICSCR, RCC_HSICALIBRATION_DEFAULT << RCC_ICSCR_HSITRIM_Pos);
 240:Drivers/STM32G4xx_HAL_Driver/Src/stm32g4xx_hal_rcc.c **** 
 241:Drivers/STM32G4xx_HAL_Driver/Src/stm32g4xx_hal_rcc.c ****   /* Get Start Tick*/
 242:Drivers/STM32G4xx_HAL_Driver/Src/stm32g4xx_hal_rcc.c ****   tickstart = HAL_GetTick();
 243:Drivers/STM32G4xx_HAL_Driver/Src/stm32g4xx_hal_rcc.c **** 
 244:Drivers/STM32G4xx_HAL_Driver/Src/stm32g4xx_hal_rcc.c ****   /* Reset CFGR register (HSI is selected as system clock source) */
 245:Drivers/STM32G4xx_HAL_Driver/Src/stm32g4xx_hal_rcc.c ****   RCC->CFGR = 0x00000001u;
 246:Drivers/STM32G4xx_HAL_Driver/Src/stm32g4xx_hal_rcc.c **** 
 247:Drivers/STM32G4xx_HAL_Driver/Src/stm32g4xx_hal_rcc.c ****   /* Wait till HSI is ready */
 248:Drivers/STM32G4xx_HAL_Driver/Src/stm32g4xx_hal_rcc.c ****   while (READ_BIT(RCC->CFGR, RCC_CFGR_SWS) != RCC_CFGR_SWS_HSI)
 249:Drivers/STM32G4xx_HAL_Driver/Src/stm32g4xx_hal_rcc.c ****   {
 250:Drivers/STM32G4xx_HAL_Driver/Src/stm32g4xx_hal_rcc.c ****     if ((HAL_GetTick() - tickstart) > CLOCKSWITCH_TIMEOUT_VALUE)
 251:Drivers/STM32G4xx_HAL_Driver/Src/stm32g4xx_hal_rcc.c ****     {
 252:Drivers/STM32G4xx_HAL_Driver/Src/stm32g4xx_hal_rcc.c ****       return HAL_TIMEOUT;
 253:Drivers/STM32G4xx_HAL_Driver/Src/stm32g4xx_hal_rcc.c ****     }
 254:Drivers/STM32G4xx_HAL_Driver/Src/stm32g4xx_hal_rcc.c ****   }
 255:Drivers/STM32G4xx_HAL_Driver/Src/stm32g4xx_hal_rcc.c **** 
 256:Drivers/STM32G4xx_HAL_Driver/Src/stm32g4xx_hal_rcc.c ****   /* Update the SystemCoreClock global variable */
 257:Drivers/STM32G4xx_HAL_Driver/Src/stm32g4xx_hal_rcc.c ****   SystemCoreClock = HSI_VALUE;
 258:Drivers/STM32G4xx_HAL_Driver/Src/stm32g4xx_hal_rcc.c **** 
 259:Drivers/STM32G4xx_HAL_Driver/Src/stm32g4xx_hal_rcc.c ****   /* Adapt Systick interrupt period */
 260:Drivers/STM32G4xx_HAL_Driver/Src/stm32g4xx_hal_rcc.c ****   if (HAL_InitTick(uwTickPrio) != HAL_OK)
ARM GAS  C:\Users\82057\AppData\Local\Temp\ccODTTN9.s 			page 6


 261:Drivers/STM32G4xx_HAL_Driver/Src/stm32g4xx_hal_rcc.c ****   {
 262:Drivers/STM32G4xx_HAL_Driver/Src/stm32g4xx_hal_rcc.c ****     return HAL_ERROR;
 263:Drivers/STM32G4xx_HAL_Driver/Src/stm32g4xx_hal_rcc.c ****   }
 264:Drivers/STM32G4xx_HAL_Driver/Src/stm32g4xx_hal_rcc.c **** 
 265:Drivers/STM32G4xx_HAL_Driver/Src/stm32g4xx_hal_rcc.c ****   /* Clear CR register in 2 steps: first to clear HSEON in case bypass was enabled */
 266:Drivers/STM32G4xx_HAL_Driver/Src/stm32g4xx_hal_rcc.c ****   RCC->CR = RCC_CR_HSION;
 267:Drivers/STM32G4xx_HAL_Driver/Src/stm32g4xx_hal_rcc.c **** 
 268:Drivers/STM32G4xx_HAL_Driver/Src/stm32g4xx_hal_rcc.c ****   /* Then again to HSEBYP in case bypass was enabled */
 269:Drivers/STM32G4xx_HAL_Driver/Src/stm32g4xx_hal_rcc.c ****   RCC->CR = RCC_CR_HSION;
 270:Drivers/STM32G4xx_HAL_Driver/Src/stm32g4xx_hal_rcc.c **** 
 271:Drivers/STM32G4xx_HAL_Driver/Src/stm32g4xx_hal_rcc.c ****   /* Get Start Tick*/
 272:Drivers/STM32G4xx_HAL_Driver/Src/stm32g4xx_hal_rcc.c ****   tickstart = HAL_GetTick();
 273:Drivers/STM32G4xx_HAL_Driver/Src/stm32g4xx_hal_rcc.c **** 
 274:Drivers/STM32G4xx_HAL_Driver/Src/stm32g4xx_hal_rcc.c ****   /* Wait till PLL is OFF */
 275:Drivers/STM32G4xx_HAL_Driver/Src/stm32g4xx_hal_rcc.c ****   while (READ_BIT(RCC->CR, RCC_CR_PLLRDY) != 0U)
 276:Drivers/STM32G4xx_HAL_Driver/Src/stm32g4xx_hal_rcc.c ****   {
 277:Drivers/STM32G4xx_HAL_Driver/Src/stm32g4xx_hal_rcc.c ****     if ((HAL_GetTick() - tickstart) > PLL_TIMEOUT_VALUE)
 278:Drivers/STM32G4xx_HAL_Driver/Src/stm32g4xx_hal_rcc.c ****     {
 279:Drivers/STM32G4xx_HAL_Driver/Src/stm32g4xx_hal_rcc.c ****       return HAL_TIMEOUT;
 280:Drivers/STM32G4xx_HAL_Driver/Src/stm32g4xx_hal_rcc.c ****     }
 281:Drivers/STM32G4xx_HAL_Driver/Src/stm32g4xx_hal_rcc.c ****   }
 282:Drivers/STM32G4xx_HAL_Driver/Src/stm32g4xx_hal_rcc.c **** 
 283:Drivers/STM32G4xx_HAL_Driver/Src/stm32g4xx_hal_rcc.c ****   /* once PLL is OFF, reset PLLCFGR register to default value */
 284:Drivers/STM32G4xx_HAL_Driver/Src/stm32g4xx_hal_rcc.c ****   RCC->PLLCFGR = RCC_PLLCFGR_PLLN_4;
 285:Drivers/STM32G4xx_HAL_Driver/Src/stm32g4xx_hal_rcc.c **** 
 286:Drivers/STM32G4xx_HAL_Driver/Src/stm32g4xx_hal_rcc.c ****   /* Disable all interrupts */
 287:Drivers/STM32G4xx_HAL_Driver/Src/stm32g4xx_hal_rcc.c ****   CLEAR_REG(RCC->CIER);
 288:Drivers/STM32G4xx_HAL_Driver/Src/stm32g4xx_hal_rcc.c **** 
 289:Drivers/STM32G4xx_HAL_Driver/Src/stm32g4xx_hal_rcc.c ****   /* Clear all interrupt flags */
 290:Drivers/STM32G4xx_HAL_Driver/Src/stm32g4xx_hal_rcc.c ****   WRITE_REG(RCC->CICR, 0xFFFFFFFFU);
 291:Drivers/STM32G4xx_HAL_Driver/Src/stm32g4xx_hal_rcc.c **** 
 292:Drivers/STM32G4xx_HAL_Driver/Src/stm32g4xx_hal_rcc.c ****   /* Clear all reset flags */
 293:Drivers/STM32G4xx_HAL_Driver/Src/stm32g4xx_hal_rcc.c ****   SET_BIT(RCC->CSR, RCC_CSR_RMVF);
 294:Drivers/STM32G4xx_HAL_Driver/Src/stm32g4xx_hal_rcc.c **** 
 295:Drivers/STM32G4xx_HAL_Driver/Src/stm32g4xx_hal_rcc.c ****   return HAL_OK;
 296:Drivers/STM32G4xx_HAL_Driver/Src/stm32g4xx_hal_rcc.c **** }
 297:Drivers/STM32G4xx_HAL_Driver/Src/stm32g4xx_hal_rcc.c **** 
 298:Drivers/STM32G4xx_HAL_Driver/Src/stm32g4xx_hal_rcc.c **** /**
 299:Drivers/STM32G4xx_HAL_Driver/Src/stm32g4xx_hal_rcc.c ****   * @brief  Initialize the RCC Oscillators according to the specified parameters in the
 300:Drivers/STM32G4xx_HAL_Driver/Src/stm32g4xx_hal_rcc.c ****   *         RCC_OscInitTypeDef.
 301:Drivers/STM32G4xx_HAL_Driver/Src/stm32g4xx_hal_rcc.c ****   * @param  RCC_OscInitStruct  pointer to an RCC_OscInitTypeDef structure that
 302:Drivers/STM32G4xx_HAL_Driver/Src/stm32g4xx_hal_rcc.c ****   *         contains the configuration information for the RCC Oscillators.
 303:Drivers/STM32G4xx_HAL_Driver/Src/stm32g4xx_hal_rcc.c ****   * @note   The PLL is not disabled when used as system clock.
 304:Drivers/STM32G4xx_HAL_Driver/Src/stm32g4xx_hal_rcc.c ****   * @note   Transitions LSE Bypass to LSE On and LSE On to LSE Bypass are not
 305:Drivers/STM32G4xx_HAL_Driver/Src/stm32g4xx_hal_rcc.c ****   *         supported by this macro. User should request a transition to LSE Off
 306:Drivers/STM32G4xx_HAL_Driver/Src/stm32g4xx_hal_rcc.c ****   *         first and then LSE On or LSE Bypass.
 307:Drivers/STM32G4xx_HAL_Driver/Src/stm32g4xx_hal_rcc.c ****   * @note   Transition HSE Bypass to HSE On and HSE On to HSE Bypass are not
 308:Drivers/STM32G4xx_HAL_Driver/Src/stm32g4xx_hal_rcc.c ****   *         supported by this macro. User should request a transition to HSE Off
 309:Drivers/STM32G4xx_HAL_Driver/Src/stm32g4xx_hal_rcc.c ****   *         first and then HSE On or HSE Bypass.
 310:Drivers/STM32G4xx_HAL_Driver/Src/stm32g4xx_hal_rcc.c ****   * @retval HAL status
 311:Drivers/STM32G4xx_HAL_Driver/Src/stm32g4xx_hal_rcc.c ****   */
 312:Drivers/STM32G4xx_HAL_Driver/Src/stm32g4xx_hal_rcc.c **** HAL_StatusTypeDef HAL_RCC_OscConfig(RCC_OscInitTypeDef  *RCC_OscInitStruct)
 313:Drivers/STM32G4xx_HAL_Driver/Src/stm32g4xx_hal_rcc.c **** {
 314:Drivers/STM32G4xx_HAL_Driver/Src/stm32g4xx_hal_rcc.c ****   uint32_t tickstart;
 315:Drivers/STM32G4xx_HAL_Driver/Src/stm32g4xx_hal_rcc.c ****   uint32_t temp_sysclksrc;
 316:Drivers/STM32G4xx_HAL_Driver/Src/stm32g4xx_hal_rcc.c ****   uint32_t temp_pllckcfg;
 317:Drivers/STM32G4xx_HAL_Driver/Src/stm32g4xx_hal_rcc.c **** 
ARM GAS  C:\Users\82057\AppData\Local\Temp\ccODTTN9.s 			page 7


 318:Drivers/STM32G4xx_HAL_Driver/Src/stm32g4xx_hal_rcc.c ****   /* Check Null pointer */
 319:Drivers/STM32G4xx_HAL_Driver/Src/stm32g4xx_hal_rcc.c ****   if (RCC_OscInitStruct == NULL)
 320:Drivers/STM32G4xx_HAL_Driver/Src/stm32g4xx_hal_rcc.c ****   {
 321:Drivers/STM32G4xx_HAL_Driver/Src/stm32g4xx_hal_rcc.c ****     return HAL_ERROR;
 322:Drivers/STM32G4xx_HAL_Driver/Src/stm32g4xx_hal_rcc.c ****   }
 323:Drivers/STM32G4xx_HAL_Driver/Src/stm32g4xx_hal_rcc.c **** 
 324:Drivers/STM32G4xx_HAL_Driver/Src/stm32g4xx_hal_rcc.c ****   /* Check the parameters */
 325:Drivers/STM32G4xx_HAL_Driver/Src/stm32g4xx_hal_rcc.c ****   assert_param(IS_RCC_OSCILLATORTYPE(RCC_OscInitStruct->OscillatorType));
 326:Drivers/STM32G4xx_HAL_Driver/Src/stm32g4xx_hal_rcc.c **** 
 327:Drivers/STM32G4xx_HAL_Driver/Src/stm32g4xx_hal_rcc.c ****   /*------------------------------- HSE Configuration ------------------------*/
 328:Drivers/STM32G4xx_HAL_Driver/Src/stm32g4xx_hal_rcc.c ****   if (((RCC_OscInitStruct->OscillatorType) & RCC_OSCILLATORTYPE_HSE) == RCC_OSCILLATORTYPE_HSE)
 329:Drivers/STM32G4xx_HAL_Driver/Src/stm32g4xx_hal_rcc.c ****   {
 330:Drivers/STM32G4xx_HAL_Driver/Src/stm32g4xx_hal_rcc.c ****     /* Check the parameters */
 331:Drivers/STM32G4xx_HAL_Driver/Src/stm32g4xx_hal_rcc.c ****     assert_param(IS_RCC_HSE(RCC_OscInitStruct->HSEState));
 332:Drivers/STM32G4xx_HAL_Driver/Src/stm32g4xx_hal_rcc.c **** 
 333:Drivers/STM32G4xx_HAL_Driver/Src/stm32g4xx_hal_rcc.c ****     temp_sysclksrc = __HAL_RCC_GET_SYSCLK_SOURCE();
 334:Drivers/STM32G4xx_HAL_Driver/Src/stm32g4xx_hal_rcc.c ****     temp_pllckcfg = __HAL_RCC_GET_PLL_OSCSOURCE();
 335:Drivers/STM32G4xx_HAL_Driver/Src/stm32g4xx_hal_rcc.c **** 
 336:Drivers/STM32G4xx_HAL_Driver/Src/stm32g4xx_hal_rcc.c ****     /* When the HSE is used as system clock or clock source for PLL in these cases it is not allowe
 337:Drivers/STM32G4xx_HAL_Driver/Src/stm32g4xx_hal_rcc.c ****     if (((temp_sysclksrc == RCC_CFGR_SWS_PLL) && (temp_pllckcfg == RCC_PLLSOURCE_HSE)) || (temp_sys
 338:Drivers/STM32G4xx_HAL_Driver/Src/stm32g4xx_hal_rcc.c ****     {
 339:Drivers/STM32G4xx_HAL_Driver/Src/stm32g4xx_hal_rcc.c ****       if ((READ_BIT(RCC->CR, RCC_CR_HSERDY) != 0U) && (RCC_OscInitStruct->HSEState == RCC_HSE_OFF))
 340:Drivers/STM32G4xx_HAL_Driver/Src/stm32g4xx_hal_rcc.c ****       {
 341:Drivers/STM32G4xx_HAL_Driver/Src/stm32g4xx_hal_rcc.c ****         return HAL_ERROR;
 342:Drivers/STM32G4xx_HAL_Driver/Src/stm32g4xx_hal_rcc.c ****       }
 343:Drivers/STM32G4xx_HAL_Driver/Src/stm32g4xx_hal_rcc.c ****     }
 344:Drivers/STM32G4xx_HAL_Driver/Src/stm32g4xx_hal_rcc.c ****     else
 345:Drivers/STM32G4xx_HAL_Driver/Src/stm32g4xx_hal_rcc.c ****     {
 346:Drivers/STM32G4xx_HAL_Driver/Src/stm32g4xx_hal_rcc.c ****       /* Set the new HSE configuration ---------------------------------------*/
 347:Drivers/STM32G4xx_HAL_Driver/Src/stm32g4xx_hal_rcc.c ****       __HAL_RCC_HSE_CONFIG(RCC_OscInitStruct->HSEState);
 348:Drivers/STM32G4xx_HAL_Driver/Src/stm32g4xx_hal_rcc.c **** 
 349:Drivers/STM32G4xx_HAL_Driver/Src/stm32g4xx_hal_rcc.c ****       /* Check the HSE State */
 350:Drivers/STM32G4xx_HAL_Driver/Src/stm32g4xx_hal_rcc.c ****       if (RCC_OscInitStruct->HSEState != RCC_HSE_OFF)
 351:Drivers/STM32G4xx_HAL_Driver/Src/stm32g4xx_hal_rcc.c ****       {
 352:Drivers/STM32G4xx_HAL_Driver/Src/stm32g4xx_hal_rcc.c ****         /* Get Start Tick*/
 353:Drivers/STM32G4xx_HAL_Driver/Src/stm32g4xx_hal_rcc.c ****         tickstart = HAL_GetTick();
 354:Drivers/STM32G4xx_HAL_Driver/Src/stm32g4xx_hal_rcc.c **** 
 355:Drivers/STM32G4xx_HAL_Driver/Src/stm32g4xx_hal_rcc.c ****         /* Wait till HSE is ready */
 356:Drivers/STM32G4xx_HAL_Driver/Src/stm32g4xx_hal_rcc.c ****         while (READ_BIT(RCC->CR, RCC_CR_HSERDY) == 0U)
 357:Drivers/STM32G4xx_HAL_Driver/Src/stm32g4xx_hal_rcc.c ****         {
 358:Drivers/STM32G4xx_HAL_Driver/Src/stm32g4xx_hal_rcc.c ****           if ((HAL_GetTick() - tickstart) > HSE_TIMEOUT_VALUE)
 359:Drivers/STM32G4xx_HAL_Driver/Src/stm32g4xx_hal_rcc.c ****           {
 360:Drivers/STM32G4xx_HAL_Driver/Src/stm32g4xx_hal_rcc.c ****             return HAL_TIMEOUT;
 361:Drivers/STM32G4xx_HAL_Driver/Src/stm32g4xx_hal_rcc.c ****           }
 362:Drivers/STM32G4xx_HAL_Driver/Src/stm32g4xx_hal_rcc.c ****         }
 363:Drivers/STM32G4xx_HAL_Driver/Src/stm32g4xx_hal_rcc.c ****       }
 364:Drivers/STM32G4xx_HAL_Driver/Src/stm32g4xx_hal_rcc.c ****       else
 365:Drivers/STM32G4xx_HAL_Driver/Src/stm32g4xx_hal_rcc.c ****       {
 366:Drivers/STM32G4xx_HAL_Driver/Src/stm32g4xx_hal_rcc.c ****         /* Get Start Tick*/
 367:Drivers/STM32G4xx_HAL_Driver/Src/stm32g4xx_hal_rcc.c ****         tickstart = HAL_GetTick();
 368:Drivers/STM32G4xx_HAL_Driver/Src/stm32g4xx_hal_rcc.c **** 
 369:Drivers/STM32G4xx_HAL_Driver/Src/stm32g4xx_hal_rcc.c ****         /* Wait till HSE is disabled */
 370:Drivers/STM32G4xx_HAL_Driver/Src/stm32g4xx_hal_rcc.c ****         while (READ_BIT(RCC->CR, RCC_CR_HSERDY) != 0U)
 371:Drivers/STM32G4xx_HAL_Driver/Src/stm32g4xx_hal_rcc.c ****         {
 372:Drivers/STM32G4xx_HAL_Driver/Src/stm32g4xx_hal_rcc.c ****           if ((HAL_GetTick() - tickstart) > HSE_TIMEOUT_VALUE)
 373:Drivers/STM32G4xx_HAL_Driver/Src/stm32g4xx_hal_rcc.c ****           {
 374:Drivers/STM32G4xx_HAL_Driver/Src/stm32g4xx_hal_rcc.c ****             return HAL_TIMEOUT;
ARM GAS  C:\Users\82057\AppData\Local\Temp\ccODTTN9.s 			page 8


 375:Drivers/STM32G4xx_HAL_Driver/Src/stm32g4xx_hal_rcc.c ****           }
 376:Drivers/STM32G4xx_HAL_Driver/Src/stm32g4xx_hal_rcc.c ****         }
 377:Drivers/STM32G4xx_HAL_Driver/Src/stm32g4xx_hal_rcc.c ****       }
 378:Drivers/STM32G4xx_HAL_Driver/Src/stm32g4xx_hal_rcc.c ****     }
 379:Drivers/STM32G4xx_HAL_Driver/Src/stm32g4xx_hal_rcc.c ****   }
 380:Drivers/STM32G4xx_HAL_Driver/Src/stm32g4xx_hal_rcc.c ****   /*----------------------------- HSI Configuration --------------------------*/
 381:Drivers/STM32G4xx_HAL_Driver/Src/stm32g4xx_hal_rcc.c ****   if (((RCC_OscInitStruct->OscillatorType) & RCC_OSCILLATORTYPE_HSI) == RCC_OSCILLATORTYPE_HSI)
 382:Drivers/STM32G4xx_HAL_Driver/Src/stm32g4xx_hal_rcc.c ****   {
 383:Drivers/STM32G4xx_HAL_Driver/Src/stm32g4xx_hal_rcc.c ****     /* Check the parameters */
 384:Drivers/STM32G4xx_HAL_Driver/Src/stm32g4xx_hal_rcc.c ****     assert_param(IS_RCC_HSI(RCC_OscInitStruct->HSIState));
 385:Drivers/STM32G4xx_HAL_Driver/Src/stm32g4xx_hal_rcc.c ****     assert_param(IS_RCC_HSI_CALIBRATION_VALUE(RCC_OscInitStruct->HSICalibrationValue));
 386:Drivers/STM32G4xx_HAL_Driver/Src/stm32g4xx_hal_rcc.c **** 
 387:Drivers/STM32G4xx_HAL_Driver/Src/stm32g4xx_hal_rcc.c ****     /* Check if HSI is used as system clock or as PLL source when PLL is selected as system clock *
 388:Drivers/STM32G4xx_HAL_Driver/Src/stm32g4xx_hal_rcc.c ****     temp_sysclksrc = __HAL_RCC_GET_SYSCLK_SOURCE();
 389:Drivers/STM32G4xx_HAL_Driver/Src/stm32g4xx_hal_rcc.c ****     temp_pllckcfg = __HAL_RCC_GET_PLL_OSCSOURCE();
 390:Drivers/STM32G4xx_HAL_Driver/Src/stm32g4xx_hal_rcc.c ****     if (((temp_sysclksrc == RCC_CFGR_SWS_PLL) && (temp_pllckcfg == RCC_PLLSOURCE_HSI)) || (temp_sys
 391:Drivers/STM32G4xx_HAL_Driver/Src/stm32g4xx_hal_rcc.c ****     {
 392:Drivers/STM32G4xx_HAL_Driver/Src/stm32g4xx_hal_rcc.c ****       /* When HSI is used as system clock it will not be disabled */
 393:Drivers/STM32G4xx_HAL_Driver/Src/stm32g4xx_hal_rcc.c ****       if ((READ_BIT(RCC->CR, RCC_CR_HSIRDY) != 0U) && (RCC_OscInitStruct->HSIState == RCC_HSI_OFF))
 394:Drivers/STM32G4xx_HAL_Driver/Src/stm32g4xx_hal_rcc.c ****       {
 395:Drivers/STM32G4xx_HAL_Driver/Src/stm32g4xx_hal_rcc.c ****         return HAL_ERROR;
 396:Drivers/STM32G4xx_HAL_Driver/Src/stm32g4xx_hal_rcc.c ****       }
 397:Drivers/STM32G4xx_HAL_Driver/Src/stm32g4xx_hal_rcc.c ****       /* Otherwise, just the calibration is allowed */
 398:Drivers/STM32G4xx_HAL_Driver/Src/stm32g4xx_hal_rcc.c ****       else
 399:Drivers/STM32G4xx_HAL_Driver/Src/stm32g4xx_hal_rcc.c ****       {
 400:Drivers/STM32G4xx_HAL_Driver/Src/stm32g4xx_hal_rcc.c ****         /* Adjusts the Internal High Speed oscillator (HSI) calibration value.*/
 401:Drivers/STM32G4xx_HAL_Driver/Src/stm32g4xx_hal_rcc.c ****         __HAL_RCC_HSI_CALIBRATIONVALUE_ADJUST(RCC_OscInitStruct->HSICalibrationValue);
 402:Drivers/STM32G4xx_HAL_Driver/Src/stm32g4xx_hal_rcc.c **** 
 403:Drivers/STM32G4xx_HAL_Driver/Src/stm32g4xx_hal_rcc.c ****         /* Adapt Systick interrupt period */
 404:Drivers/STM32G4xx_HAL_Driver/Src/stm32g4xx_hal_rcc.c ****         if (HAL_InitTick(uwTickPrio) != HAL_OK)
 405:Drivers/STM32G4xx_HAL_Driver/Src/stm32g4xx_hal_rcc.c ****         {
 406:Drivers/STM32G4xx_HAL_Driver/Src/stm32g4xx_hal_rcc.c ****           return HAL_ERROR;
 407:Drivers/STM32G4xx_HAL_Driver/Src/stm32g4xx_hal_rcc.c ****         }
 408:Drivers/STM32G4xx_HAL_Driver/Src/stm32g4xx_hal_rcc.c ****       }
 409:Drivers/STM32G4xx_HAL_Driver/Src/stm32g4xx_hal_rcc.c ****     }
 410:Drivers/STM32G4xx_HAL_Driver/Src/stm32g4xx_hal_rcc.c ****     else
 411:Drivers/STM32G4xx_HAL_Driver/Src/stm32g4xx_hal_rcc.c ****     {
 412:Drivers/STM32G4xx_HAL_Driver/Src/stm32g4xx_hal_rcc.c ****       /* Check the HSI State */
 413:Drivers/STM32G4xx_HAL_Driver/Src/stm32g4xx_hal_rcc.c ****       if (RCC_OscInitStruct->HSIState != RCC_HSI_OFF)
 414:Drivers/STM32G4xx_HAL_Driver/Src/stm32g4xx_hal_rcc.c ****       {
 415:Drivers/STM32G4xx_HAL_Driver/Src/stm32g4xx_hal_rcc.c ****         /* Enable the Internal High Speed oscillator (HSI). */
 416:Drivers/STM32G4xx_HAL_Driver/Src/stm32g4xx_hal_rcc.c ****         __HAL_RCC_HSI_ENABLE();
 417:Drivers/STM32G4xx_HAL_Driver/Src/stm32g4xx_hal_rcc.c **** 
 418:Drivers/STM32G4xx_HAL_Driver/Src/stm32g4xx_hal_rcc.c ****         /* Get Start Tick*/
 419:Drivers/STM32G4xx_HAL_Driver/Src/stm32g4xx_hal_rcc.c ****         tickstart = HAL_GetTick();
 420:Drivers/STM32G4xx_HAL_Driver/Src/stm32g4xx_hal_rcc.c **** 
 421:Drivers/STM32G4xx_HAL_Driver/Src/stm32g4xx_hal_rcc.c ****         /* Wait till HSI is ready */
 422:Drivers/STM32G4xx_HAL_Driver/Src/stm32g4xx_hal_rcc.c ****         while (READ_BIT(RCC->CR, RCC_CR_HSIRDY) == 0U)
 423:Drivers/STM32G4xx_HAL_Driver/Src/stm32g4xx_hal_rcc.c ****         {
 424:Drivers/STM32G4xx_HAL_Driver/Src/stm32g4xx_hal_rcc.c ****           if ((HAL_GetTick() - tickstart) > HSI_TIMEOUT_VALUE)
 425:Drivers/STM32G4xx_HAL_Driver/Src/stm32g4xx_hal_rcc.c ****           {
 426:Drivers/STM32G4xx_HAL_Driver/Src/stm32g4xx_hal_rcc.c ****             return HAL_TIMEOUT;
 427:Drivers/STM32G4xx_HAL_Driver/Src/stm32g4xx_hal_rcc.c ****           }
 428:Drivers/STM32G4xx_HAL_Driver/Src/stm32g4xx_hal_rcc.c ****         }
 429:Drivers/STM32G4xx_HAL_Driver/Src/stm32g4xx_hal_rcc.c **** 
 430:Drivers/STM32G4xx_HAL_Driver/Src/stm32g4xx_hal_rcc.c ****         /* Adjusts the Internal High Speed oscillator (HSI) calibration value.*/
 431:Drivers/STM32G4xx_HAL_Driver/Src/stm32g4xx_hal_rcc.c ****         __HAL_RCC_HSI_CALIBRATIONVALUE_ADJUST(RCC_OscInitStruct->HSICalibrationValue);
ARM GAS  C:\Users\82057\AppData\Local\Temp\ccODTTN9.s 			page 9


 432:Drivers/STM32G4xx_HAL_Driver/Src/stm32g4xx_hal_rcc.c ****       }
 433:Drivers/STM32G4xx_HAL_Driver/Src/stm32g4xx_hal_rcc.c ****       else
 434:Drivers/STM32G4xx_HAL_Driver/Src/stm32g4xx_hal_rcc.c ****       {
 435:Drivers/STM32G4xx_HAL_Driver/Src/stm32g4xx_hal_rcc.c ****         /* Disable the Internal High Speed oscillator (HSI). */
 436:Drivers/STM32G4xx_HAL_Driver/Src/stm32g4xx_hal_rcc.c ****         __HAL_RCC_HSI_DISABLE();
 437:Drivers/STM32G4xx_HAL_Driver/Src/stm32g4xx_hal_rcc.c **** 
 438:Drivers/STM32G4xx_HAL_Driver/Src/stm32g4xx_hal_rcc.c ****         /* Get Start Tick*/
 439:Drivers/STM32G4xx_HAL_Driver/Src/stm32g4xx_hal_rcc.c ****         tickstart = HAL_GetTick();
 440:Drivers/STM32G4xx_HAL_Driver/Src/stm32g4xx_hal_rcc.c **** 
 441:Drivers/STM32G4xx_HAL_Driver/Src/stm32g4xx_hal_rcc.c ****         /* Wait till HSI is disabled */
 442:Drivers/STM32G4xx_HAL_Driver/Src/stm32g4xx_hal_rcc.c ****         while (READ_BIT(RCC->CR, RCC_CR_HSIRDY) != 0U)
 443:Drivers/STM32G4xx_HAL_Driver/Src/stm32g4xx_hal_rcc.c ****         {
 444:Drivers/STM32G4xx_HAL_Driver/Src/stm32g4xx_hal_rcc.c ****           if ((HAL_GetTick() - tickstart) > HSI_TIMEOUT_VALUE)
 445:Drivers/STM32G4xx_HAL_Driver/Src/stm32g4xx_hal_rcc.c ****           {
 446:Drivers/STM32G4xx_HAL_Driver/Src/stm32g4xx_hal_rcc.c ****             return HAL_TIMEOUT;
 447:Drivers/STM32G4xx_HAL_Driver/Src/stm32g4xx_hal_rcc.c ****           }
 448:Drivers/STM32G4xx_HAL_Driver/Src/stm32g4xx_hal_rcc.c ****         }
 449:Drivers/STM32G4xx_HAL_Driver/Src/stm32g4xx_hal_rcc.c ****       }
 450:Drivers/STM32G4xx_HAL_Driver/Src/stm32g4xx_hal_rcc.c ****     }
 451:Drivers/STM32G4xx_HAL_Driver/Src/stm32g4xx_hal_rcc.c ****   }
 452:Drivers/STM32G4xx_HAL_Driver/Src/stm32g4xx_hal_rcc.c ****   /*------------------------------ LSI Configuration -------------------------*/
 453:Drivers/STM32G4xx_HAL_Driver/Src/stm32g4xx_hal_rcc.c ****   if (((RCC_OscInitStruct->OscillatorType) & RCC_OSCILLATORTYPE_LSI) == RCC_OSCILLATORTYPE_LSI)
 454:Drivers/STM32G4xx_HAL_Driver/Src/stm32g4xx_hal_rcc.c ****   {
 455:Drivers/STM32G4xx_HAL_Driver/Src/stm32g4xx_hal_rcc.c ****     /* Check the parameters */
 456:Drivers/STM32G4xx_HAL_Driver/Src/stm32g4xx_hal_rcc.c ****     assert_param(IS_RCC_LSI(RCC_OscInitStruct->LSIState));
 457:Drivers/STM32G4xx_HAL_Driver/Src/stm32g4xx_hal_rcc.c **** 
 458:Drivers/STM32G4xx_HAL_Driver/Src/stm32g4xx_hal_rcc.c ****     /* Check the LSI State */
 459:Drivers/STM32G4xx_HAL_Driver/Src/stm32g4xx_hal_rcc.c ****     if(RCC_OscInitStruct->LSIState != RCC_LSI_OFF)
 460:Drivers/STM32G4xx_HAL_Driver/Src/stm32g4xx_hal_rcc.c ****     {
 461:Drivers/STM32G4xx_HAL_Driver/Src/stm32g4xx_hal_rcc.c ****       /* Enable the Internal Low Speed oscillator (LSI). */
 462:Drivers/STM32G4xx_HAL_Driver/Src/stm32g4xx_hal_rcc.c ****       __HAL_RCC_LSI_ENABLE();
 463:Drivers/STM32G4xx_HAL_Driver/Src/stm32g4xx_hal_rcc.c **** 
 464:Drivers/STM32G4xx_HAL_Driver/Src/stm32g4xx_hal_rcc.c ****       /* Get Start Tick*/
 465:Drivers/STM32G4xx_HAL_Driver/Src/stm32g4xx_hal_rcc.c ****       tickstart = HAL_GetTick();
 466:Drivers/STM32G4xx_HAL_Driver/Src/stm32g4xx_hal_rcc.c **** 
 467:Drivers/STM32G4xx_HAL_Driver/Src/stm32g4xx_hal_rcc.c ****       /* Wait till LSI is ready */
 468:Drivers/STM32G4xx_HAL_Driver/Src/stm32g4xx_hal_rcc.c ****       while (READ_BIT(RCC->CSR, RCC_CSR_LSIRDY) == 0U)
 469:Drivers/STM32G4xx_HAL_Driver/Src/stm32g4xx_hal_rcc.c ****       {
 470:Drivers/STM32G4xx_HAL_Driver/Src/stm32g4xx_hal_rcc.c ****         if ((HAL_GetTick() - tickstart) > LSI_TIMEOUT_VALUE)
 471:Drivers/STM32G4xx_HAL_Driver/Src/stm32g4xx_hal_rcc.c ****         {
 472:Drivers/STM32G4xx_HAL_Driver/Src/stm32g4xx_hal_rcc.c ****           return HAL_TIMEOUT;
 473:Drivers/STM32G4xx_HAL_Driver/Src/stm32g4xx_hal_rcc.c ****         }
 474:Drivers/STM32G4xx_HAL_Driver/Src/stm32g4xx_hal_rcc.c ****       }
 475:Drivers/STM32G4xx_HAL_Driver/Src/stm32g4xx_hal_rcc.c ****     }
 476:Drivers/STM32G4xx_HAL_Driver/Src/stm32g4xx_hal_rcc.c ****     else
 477:Drivers/STM32G4xx_HAL_Driver/Src/stm32g4xx_hal_rcc.c ****     {
 478:Drivers/STM32G4xx_HAL_Driver/Src/stm32g4xx_hal_rcc.c ****       /* Disable the Internal Low Speed oscillator (LSI). */
 479:Drivers/STM32G4xx_HAL_Driver/Src/stm32g4xx_hal_rcc.c ****       __HAL_RCC_LSI_DISABLE();
 480:Drivers/STM32G4xx_HAL_Driver/Src/stm32g4xx_hal_rcc.c **** 
 481:Drivers/STM32G4xx_HAL_Driver/Src/stm32g4xx_hal_rcc.c ****       /* Get Start Tick*/
 482:Drivers/STM32G4xx_HAL_Driver/Src/stm32g4xx_hal_rcc.c ****       tickstart = HAL_GetTick();
 483:Drivers/STM32G4xx_HAL_Driver/Src/stm32g4xx_hal_rcc.c **** 
 484:Drivers/STM32G4xx_HAL_Driver/Src/stm32g4xx_hal_rcc.c ****       /* Wait till LSI is disabled */
 485:Drivers/STM32G4xx_HAL_Driver/Src/stm32g4xx_hal_rcc.c ****       while(READ_BIT(RCC->CSR, RCC_CSR_LSIRDY) != 0U)
 486:Drivers/STM32G4xx_HAL_Driver/Src/stm32g4xx_hal_rcc.c ****       {
 487:Drivers/STM32G4xx_HAL_Driver/Src/stm32g4xx_hal_rcc.c ****         if((HAL_GetTick() - tickstart) > LSI_TIMEOUT_VALUE)
 488:Drivers/STM32G4xx_HAL_Driver/Src/stm32g4xx_hal_rcc.c ****         {
ARM GAS  C:\Users\82057\AppData\Local\Temp\ccODTTN9.s 			page 10


 489:Drivers/STM32G4xx_HAL_Driver/Src/stm32g4xx_hal_rcc.c ****           return HAL_TIMEOUT;
 490:Drivers/STM32G4xx_HAL_Driver/Src/stm32g4xx_hal_rcc.c ****         }
 491:Drivers/STM32G4xx_HAL_Driver/Src/stm32g4xx_hal_rcc.c ****       }
 492:Drivers/STM32G4xx_HAL_Driver/Src/stm32g4xx_hal_rcc.c ****     }
 493:Drivers/STM32G4xx_HAL_Driver/Src/stm32g4xx_hal_rcc.c ****   }
 494:Drivers/STM32G4xx_HAL_Driver/Src/stm32g4xx_hal_rcc.c ****   /*------------------------------ LSE Configuration -------------------------*/
 495:Drivers/STM32G4xx_HAL_Driver/Src/stm32g4xx_hal_rcc.c ****   if (((RCC_OscInitStruct->OscillatorType) & RCC_OSCILLATORTYPE_LSE) == RCC_OSCILLATORTYPE_LSE)
 496:Drivers/STM32G4xx_HAL_Driver/Src/stm32g4xx_hal_rcc.c ****   {
 497:Drivers/STM32G4xx_HAL_Driver/Src/stm32g4xx_hal_rcc.c ****     FlagStatus       pwrclkchanged = RESET;
 498:Drivers/STM32G4xx_HAL_Driver/Src/stm32g4xx_hal_rcc.c **** 
 499:Drivers/STM32G4xx_HAL_Driver/Src/stm32g4xx_hal_rcc.c ****     /* Check the parameters */
 500:Drivers/STM32G4xx_HAL_Driver/Src/stm32g4xx_hal_rcc.c ****     assert_param(IS_RCC_LSE(RCC_OscInitStruct->LSEState));
 501:Drivers/STM32G4xx_HAL_Driver/Src/stm32g4xx_hal_rcc.c **** 
 502:Drivers/STM32G4xx_HAL_Driver/Src/stm32g4xx_hal_rcc.c ****     /* Update LSE configuration in Backup Domain control register    */
 503:Drivers/STM32G4xx_HAL_Driver/Src/stm32g4xx_hal_rcc.c ****     /* Requires to enable write access to Backup Domain if necessary */
 504:Drivers/STM32G4xx_HAL_Driver/Src/stm32g4xx_hal_rcc.c ****     if (__HAL_RCC_PWR_IS_CLK_DISABLED() != 0U)
 505:Drivers/STM32G4xx_HAL_Driver/Src/stm32g4xx_hal_rcc.c ****     {
 506:Drivers/STM32G4xx_HAL_Driver/Src/stm32g4xx_hal_rcc.c ****       __HAL_RCC_PWR_CLK_ENABLE();
 507:Drivers/STM32G4xx_HAL_Driver/Src/stm32g4xx_hal_rcc.c ****       pwrclkchanged = SET;
 508:Drivers/STM32G4xx_HAL_Driver/Src/stm32g4xx_hal_rcc.c ****     }
 509:Drivers/STM32G4xx_HAL_Driver/Src/stm32g4xx_hal_rcc.c **** 
 510:Drivers/STM32G4xx_HAL_Driver/Src/stm32g4xx_hal_rcc.c ****     if (HAL_IS_BIT_CLR(PWR->CR1, PWR_CR1_DBP))
 511:Drivers/STM32G4xx_HAL_Driver/Src/stm32g4xx_hal_rcc.c ****     {
 512:Drivers/STM32G4xx_HAL_Driver/Src/stm32g4xx_hal_rcc.c ****       /* Enable write access to Backup domain */
 513:Drivers/STM32G4xx_HAL_Driver/Src/stm32g4xx_hal_rcc.c ****       SET_BIT(PWR->CR1, PWR_CR1_DBP);
 514:Drivers/STM32G4xx_HAL_Driver/Src/stm32g4xx_hal_rcc.c **** 
 515:Drivers/STM32G4xx_HAL_Driver/Src/stm32g4xx_hal_rcc.c ****       /* Wait for Backup domain Write protection disable */
 516:Drivers/STM32G4xx_HAL_Driver/Src/stm32g4xx_hal_rcc.c ****       tickstart = HAL_GetTick();
 517:Drivers/STM32G4xx_HAL_Driver/Src/stm32g4xx_hal_rcc.c **** 
 518:Drivers/STM32G4xx_HAL_Driver/Src/stm32g4xx_hal_rcc.c ****       while (HAL_IS_BIT_CLR(PWR->CR1, PWR_CR1_DBP))
 519:Drivers/STM32G4xx_HAL_Driver/Src/stm32g4xx_hal_rcc.c ****       {
 520:Drivers/STM32G4xx_HAL_Driver/Src/stm32g4xx_hal_rcc.c ****         if ((HAL_GetTick() - tickstart) > RCC_DBP_TIMEOUT_VALUE)
 521:Drivers/STM32G4xx_HAL_Driver/Src/stm32g4xx_hal_rcc.c ****         {
 522:Drivers/STM32G4xx_HAL_Driver/Src/stm32g4xx_hal_rcc.c ****           return HAL_TIMEOUT;
 523:Drivers/STM32G4xx_HAL_Driver/Src/stm32g4xx_hal_rcc.c ****         }
 524:Drivers/STM32G4xx_HAL_Driver/Src/stm32g4xx_hal_rcc.c ****       }
 525:Drivers/STM32G4xx_HAL_Driver/Src/stm32g4xx_hal_rcc.c ****     }
 526:Drivers/STM32G4xx_HAL_Driver/Src/stm32g4xx_hal_rcc.c **** 
 527:Drivers/STM32G4xx_HAL_Driver/Src/stm32g4xx_hal_rcc.c ****     /* Set the new LSE configuration -----------------------------------------*/
 528:Drivers/STM32G4xx_HAL_Driver/Src/stm32g4xx_hal_rcc.c ****     __HAL_RCC_LSE_CONFIG(RCC_OscInitStruct->LSEState);
 529:Drivers/STM32G4xx_HAL_Driver/Src/stm32g4xx_hal_rcc.c **** 
 530:Drivers/STM32G4xx_HAL_Driver/Src/stm32g4xx_hal_rcc.c ****     /* Check the LSE State */
 531:Drivers/STM32G4xx_HAL_Driver/Src/stm32g4xx_hal_rcc.c ****     if (RCC_OscInitStruct->LSEState != RCC_LSE_OFF)
 532:Drivers/STM32G4xx_HAL_Driver/Src/stm32g4xx_hal_rcc.c ****     {
 533:Drivers/STM32G4xx_HAL_Driver/Src/stm32g4xx_hal_rcc.c ****       /* Get Start Tick*/
 534:Drivers/STM32G4xx_HAL_Driver/Src/stm32g4xx_hal_rcc.c ****       tickstart = HAL_GetTick();
 535:Drivers/STM32G4xx_HAL_Driver/Src/stm32g4xx_hal_rcc.c **** 
 536:Drivers/STM32G4xx_HAL_Driver/Src/stm32g4xx_hal_rcc.c ****       /* Wait till LSE is ready */
 537:Drivers/STM32G4xx_HAL_Driver/Src/stm32g4xx_hal_rcc.c ****       while (READ_BIT(RCC->BDCR, RCC_BDCR_LSERDY) == 0U)
 538:Drivers/STM32G4xx_HAL_Driver/Src/stm32g4xx_hal_rcc.c ****       {
 539:Drivers/STM32G4xx_HAL_Driver/Src/stm32g4xx_hal_rcc.c ****         if((HAL_GetTick() - tickstart) > RCC_LSE_TIMEOUT_VALUE)
 540:Drivers/STM32G4xx_HAL_Driver/Src/stm32g4xx_hal_rcc.c ****         {
 541:Drivers/STM32G4xx_HAL_Driver/Src/stm32g4xx_hal_rcc.c ****           return HAL_TIMEOUT;
 542:Drivers/STM32G4xx_HAL_Driver/Src/stm32g4xx_hal_rcc.c ****         }
 543:Drivers/STM32G4xx_HAL_Driver/Src/stm32g4xx_hal_rcc.c ****       }
 544:Drivers/STM32G4xx_HAL_Driver/Src/stm32g4xx_hal_rcc.c ****     }
 545:Drivers/STM32G4xx_HAL_Driver/Src/stm32g4xx_hal_rcc.c ****     else
ARM GAS  C:\Users\82057\AppData\Local\Temp\ccODTTN9.s 			page 11


 546:Drivers/STM32G4xx_HAL_Driver/Src/stm32g4xx_hal_rcc.c ****     {
 547:Drivers/STM32G4xx_HAL_Driver/Src/stm32g4xx_hal_rcc.c ****       /* Get Start Tick*/
 548:Drivers/STM32G4xx_HAL_Driver/Src/stm32g4xx_hal_rcc.c ****       tickstart = HAL_GetTick();
 549:Drivers/STM32G4xx_HAL_Driver/Src/stm32g4xx_hal_rcc.c **** 
 550:Drivers/STM32G4xx_HAL_Driver/Src/stm32g4xx_hal_rcc.c ****       /* Wait till LSE is disabled */
 551:Drivers/STM32G4xx_HAL_Driver/Src/stm32g4xx_hal_rcc.c ****       while (READ_BIT(RCC->BDCR, RCC_BDCR_LSERDY) != 0U)
 552:Drivers/STM32G4xx_HAL_Driver/Src/stm32g4xx_hal_rcc.c ****       {
 553:Drivers/STM32G4xx_HAL_Driver/Src/stm32g4xx_hal_rcc.c ****         if((HAL_GetTick() - tickstart) > RCC_LSE_TIMEOUT_VALUE)
 554:Drivers/STM32G4xx_HAL_Driver/Src/stm32g4xx_hal_rcc.c ****         {
 555:Drivers/STM32G4xx_HAL_Driver/Src/stm32g4xx_hal_rcc.c ****           return HAL_TIMEOUT;
 556:Drivers/STM32G4xx_HAL_Driver/Src/stm32g4xx_hal_rcc.c ****         }
 557:Drivers/STM32G4xx_HAL_Driver/Src/stm32g4xx_hal_rcc.c ****       }
 558:Drivers/STM32G4xx_HAL_Driver/Src/stm32g4xx_hal_rcc.c ****     }
 559:Drivers/STM32G4xx_HAL_Driver/Src/stm32g4xx_hal_rcc.c **** 
 560:Drivers/STM32G4xx_HAL_Driver/Src/stm32g4xx_hal_rcc.c ****     /* Restore clock configuration if changed */
 561:Drivers/STM32G4xx_HAL_Driver/Src/stm32g4xx_hal_rcc.c ****     if (pwrclkchanged == SET)
 562:Drivers/STM32G4xx_HAL_Driver/Src/stm32g4xx_hal_rcc.c ****     {
 563:Drivers/STM32G4xx_HAL_Driver/Src/stm32g4xx_hal_rcc.c ****       __HAL_RCC_PWR_CLK_DISABLE();
 564:Drivers/STM32G4xx_HAL_Driver/Src/stm32g4xx_hal_rcc.c ****     }
 565:Drivers/STM32G4xx_HAL_Driver/Src/stm32g4xx_hal_rcc.c ****   }
 566:Drivers/STM32G4xx_HAL_Driver/Src/stm32g4xx_hal_rcc.c **** 
 567:Drivers/STM32G4xx_HAL_Driver/Src/stm32g4xx_hal_rcc.c ****   /*------------------------------ HSI48 Configuration -----------------------*/
 568:Drivers/STM32G4xx_HAL_Driver/Src/stm32g4xx_hal_rcc.c ****   if(((RCC_OscInitStruct->OscillatorType) & RCC_OSCILLATORTYPE_HSI48) == RCC_OSCILLATORTYPE_HSI48)
 569:Drivers/STM32G4xx_HAL_Driver/Src/stm32g4xx_hal_rcc.c ****   {
 570:Drivers/STM32G4xx_HAL_Driver/Src/stm32g4xx_hal_rcc.c ****     /* Check the parameters */
 571:Drivers/STM32G4xx_HAL_Driver/Src/stm32g4xx_hal_rcc.c ****     assert_param(IS_RCC_HSI48(RCC_OscInitStruct->HSI48State));
 572:Drivers/STM32G4xx_HAL_Driver/Src/stm32g4xx_hal_rcc.c **** 
 573:Drivers/STM32G4xx_HAL_Driver/Src/stm32g4xx_hal_rcc.c ****     /* Check the HSI48 State */
 574:Drivers/STM32G4xx_HAL_Driver/Src/stm32g4xx_hal_rcc.c ****     if(RCC_OscInitStruct->HSI48State != RCC_HSI48_OFF)
 575:Drivers/STM32G4xx_HAL_Driver/Src/stm32g4xx_hal_rcc.c ****     {
 576:Drivers/STM32G4xx_HAL_Driver/Src/stm32g4xx_hal_rcc.c ****       /* Enable the Internal Low Speed oscillator (HSI48). */
 577:Drivers/STM32G4xx_HAL_Driver/Src/stm32g4xx_hal_rcc.c ****       __HAL_RCC_HSI48_ENABLE();
 578:Drivers/STM32G4xx_HAL_Driver/Src/stm32g4xx_hal_rcc.c **** 
 579:Drivers/STM32G4xx_HAL_Driver/Src/stm32g4xx_hal_rcc.c ****       /* Get Start Tick*/
 580:Drivers/STM32G4xx_HAL_Driver/Src/stm32g4xx_hal_rcc.c ****       tickstart = HAL_GetTick();
 581:Drivers/STM32G4xx_HAL_Driver/Src/stm32g4xx_hal_rcc.c **** 
 582:Drivers/STM32G4xx_HAL_Driver/Src/stm32g4xx_hal_rcc.c ****       /* Wait till HSI48 is ready */
 583:Drivers/STM32G4xx_HAL_Driver/Src/stm32g4xx_hal_rcc.c ****       while(READ_BIT(RCC->CRRCR, RCC_CRRCR_HSI48RDY) == 0U)
 584:Drivers/STM32G4xx_HAL_Driver/Src/stm32g4xx_hal_rcc.c ****       {
 585:Drivers/STM32G4xx_HAL_Driver/Src/stm32g4xx_hal_rcc.c ****         if((HAL_GetTick() - tickstart) > HSI48_TIMEOUT_VALUE)
 586:Drivers/STM32G4xx_HAL_Driver/Src/stm32g4xx_hal_rcc.c ****         {
 587:Drivers/STM32G4xx_HAL_Driver/Src/stm32g4xx_hal_rcc.c ****           return HAL_TIMEOUT;
 588:Drivers/STM32G4xx_HAL_Driver/Src/stm32g4xx_hal_rcc.c ****         }
 589:Drivers/STM32G4xx_HAL_Driver/Src/stm32g4xx_hal_rcc.c ****       }
 590:Drivers/STM32G4xx_HAL_Driver/Src/stm32g4xx_hal_rcc.c ****     }
 591:Drivers/STM32G4xx_HAL_Driver/Src/stm32g4xx_hal_rcc.c ****     else
 592:Drivers/STM32G4xx_HAL_Driver/Src/stm32g4xx_hal_rcc.c ****     {
 593:Drivers/STM32G4xx_HAL_Driver/Src/stm32g4xx_hal_rcc.c ****       /* Disable the Internal Low Speed oscillator (HSI48). */
 594:Drivers/STM32G4xx_HAL_Driver/Src/stm32g4xx_hal_rcc.c ****       __HAL_RCC_HSI48_DISABLE();
 595:Drivers/STM32G4xx_HAL_Driver/Src/stm32g4xx_hal_rcc.c **** 
 596:Drivers/STM32G4xx_HAL_Driver/Src/stm32g4xx_hal_rcc.c ****       /* Get Start Tick*/
 597:Drivers/STM32G4xx_HAL_Driver/Src/stm32g4xx_hal_rcc.c ****       tickstart = HAL_GetTick();
 598:Drivers/STM32G4xx_HAL_Driver/Src/stm32g4xx_hal_rcc.c **** 
 599:Drivers/STM32G4xx_HAL_Driver/Src/stm32g4xx_hal_rcc.c ****       /* Wait till HSI48 is disabled */
 600:Drivers/STM32G4xx_HAL_Driver/Src/stm32g4xx_hal_rcc.c ****       while(READ_BIT(RCC->CRRCR, RCC_CRRCR_HSI48RDY) != 0U)
 601:Drivers/STM32G4xx_HAL_Driver/Src/stm32g4xx_hal_rcc.c ****       {
 602:Drivers/STM32G4xx_HAL_Driver/Src/stm32g4xx_hal_rcc.c ****         if((HAL_GetTick() - tickstart) > HSI48_TIMEOUT_VALUE)
ARM GAS  C:\Users\82057\AppData\Local\Temp\ccODTTN9.s 			page 12


 603:Drivers/STM32G4xx_HAL_Driver/Src/stm32g4xx_hal_rcc.c ****         {
 604:Drivers/STM32G4xx_HAL_Driver/Src/stm32g4xx_hal_rcc.c ****           return HAL_TIMEOUT;
 605:Drivers/STM32G4xx_HAL_Driver/Src/stm32g4xx_hal_rcc.c ****         }
 606:Drivers/STM32G4xx_HAL_Driver/Src/stm32g4xx_hal_rcc.c ****       }
 607:Drivers/STM32G4xx_HAL_Driver/Src/stm32g4xx_hal_rcc.c ****     }
 608:Drivers/STM32G4xx_HAL_Driver/Src/stm32g4xx_hal_rcc.c ****   }
 609:Drivers/STM32G4xx_HAL_Driver/Src/stm32g4xx_hal_rcc.c **** 
 610:Drivers/STM32G4xx_HAL_Driver/Src/stm32g4xx_hal_rcc.c ****   /*-------------------------------- PLL Configuration -----------------------*/
 611:Drivers/STM32G4xx_HAL_Driver/Src/stm32g4xx_hal_rcc.c ****   /* Check the parameters */
 612:Drivers/STM32G4xx_HAL_Driver/Src/stm32g4xx_hal_rcc.c ****   assert_param(IS_RCC_PLL(RCC_OscInitStruct->PLL.PLLState));
 613:Drivers/STM32G4xx_HAL_Driver/Src/stm32g4xx_hal_rcc.c **** 
 614:Drivers/STM32G4xx_HAL_Driver/Src/stm32g4xx_hal_rcc.c ****   if (RCC_OscInitStruct->PLL.PLLState != RCC_PLL_NONE)
 615:Drivers/STM32G4xx_HAL_Driver/Src/stm32g4xx_hal_rcc.c ****   {
 616:Drivers/STM32G4xx_HAL_Driver/Src/stm32g4xx_hal_rcc.c ****     /* Check if the PLL is used as system clock or not */
 617:Drivers/STM32G4xx_HAL_Driver/Src/stm32g4xx_hal_rcc.c ****     if (__HAL_RCC_GET_SYSCLK_SOURCE() != RCC_CFGR_SWS_PLL)
 618:Drivers/STM32G4xx_HAL_Driver/Src/stm32g4xx_hal_rcc.c ****     {
 619:Drivers/STM32G4xx_HAL_Driver/Src/stm32g4xx_hal_rcc.c ****       if (RCC_OscInitStruct->PLL.PLLState == RCC_PLL_ON)
 620:Drivers/STM32G4xx_HAL_Driver/Src/stm32g4xx_hal_rcc.c ****       {
 621:Drivers/STM32G4xx_HAL_Driver/Src/stm32g4xx_hal_rcc.c ****         /* Check the parameters */
 622:Drivers/STM32G4xx_HAL_Driver/Src/stm32g4xx_hal_rcc.c ****         assert_param(IS_RCC_PLLSOURCE(RCC_OscInitStruct->PLL.PLLSource));
 623:Drivers/STM32G4xx_HAL_Driver/Src/stm32g4xx_hal_rcc.c ****         assert_param(IS_RCC_PLLM_VALUE(RCC_OscInitStruct->PLL.PLLM));
 624:Drivers/STM32G4xx_HAL_Driver/Src/stm32g4xx_hal_rcc.c ****         assert_param(IS_RCC_PLLN_VALUE(RCC_OscInitStruct->PLL.PLLN));
 625:Drivers/STM32G4xx_HAL_Driver/Src/stm32g4xx_hal_rcc.c ****         assert_param(IS_RCC_PLLP_VALUE(RCC_OscInitStruct->PLL.PLLP));
 626:Drivers/STM32G4xx_HAL_Driver/Src/stm32g4xx_hal_rcc.c ****         assert_param(IS_RCC_PLLQ_VALUE(RCC_OscInitStruct->PLL.PLLQ));
 627:Drivers/STM32G4xx_HAL_Driver/Src/stm32g4xx_hal_rcc.c ****         assert_param(IS_RCC_PLLR_VALUE(RCC_OscInitStruct->PLL.PLLR));
 628:Drivers/STM32G4xx_HAL_Driver/Src/stm32g4xx_hal_rcc.c **** 
 629:Drivers/STM32G4xx_HAL_Driver/Src/stm32g4xx_hal_rcc.c ****         /* Disable the main PLL. */
 630:Drivers/STM32G4xx_HAL_Driver/Src/stm32g4xx_hal_rcc.c ****         __HAL_RCC_PLL_DISABLE();
 631:Drivers/STM32G4xx_HAL_Driver/Src/stm32g4xx_hal_rcc.c **** 
 632:Drivers/STM32G4xx_HAL_Driver/Src/stm32g4xx_hal_rcc.c ****         /* Get Start Tick*/
 633:Drivers/STM32G4xx_HAL_Driver/Src/stm32g4xx_hal_rcc.c ****         tickstart = HAL_GetTick();
 634:Drivers/STM32G4xx_HAL_Driver/Src/stm32g4xx_hal_rcc.c **** 
 635:Drivers/STM32G4xx_HAL_Driver/Src/stm32g4xx_hal_rcc.c ****         /* Wait till PLL is disabled */
 636:Drivers/STM32G4xx_HAL_Driver/Src/stm32g4xx_hal_rcc.c ****         while (READ_BIT(RCC->CR, RCC_CR_PLLRDY) != 0U)
 637:Drivers/STM32G4xx_HAL_Driver/Src/stm32g4xx_hal_rcc.c ****         {
 638:Drivers/STM32G4xx_HAL_Driver/Src/stm32g4xx_hal_rcc.c ****           if ((HAL_GetTick() - tickstart) > PLL_TIMEOUT_VALUE)
 639:Drivers/STM32G4xx_HAL_Driver/Src/stm32g4xx_hal_rcc.c ****           {
 640:Drivers/STM32G4xx_HAL_Driver/Src/stm32g4xx_hal_rcc.c ****             return HAL_TIMEOUT;
 641:Drivers/STM32G4xx_HAL_Driver/Src/stm32g4xx_hal_rcc.c ****           }
 642:Drivers/STM32G4xx_HAL_Driver/Src/stm32g4xx_hal_rcc.c ****         }
 643:Drivers/STM32G4xx_HAL_Driver/Src/stm32g4xx_hal_rcc.c **** 
 644:Drivers/STM32G4xx_HAL_Driver/Src/stm32g4xx_hal_rcc.c ****         /* Configure the main PLL clock source, multiplication and division factors. */
 645:Drivers/STM32G4xx_HAL_Driver/Src/stm32g4xx_hal_rcc.c ****         __HAL_RCC_PLL_CONFIG(RCC_OscInitStruct->PLL.PLLSource,
 646:Drivers/STM32G4xx_HAL_Driver/Src/stm32g4xx_hal_rcc.c ****                              RCC_OscInitStruct->PLL.PLLM,
 647:Drivers/STM32G4xx_HAL_Driver/Src/stm32g4xx_hal_rcc.c ****                              RCC_OscInitStruct->PLL.PLLN,
 648:Drivers/STM32G4xx_HAL_Driver/Src/stm32g4xx_hal_rcc.c ****                              RCC_OscInitStruct->PLL.PLLP,
 649:Drivers/STM32G4xx_HAL_Driver/Src/stm32g4xx_hal_rcc.c ****                              RCC_OscInitStruct->PLL.PLLQ,
 650:Drivers/STM32G4xx_HAL_Driver/Src/stm32g4xx_hal_rcc.c ****                              RCC_OscInitStruct->PLL.PLLR);
 651:Drivers/STM32G4xx_HAL_Driver/Src/stm32g4xx_hal_rcc.c **** 
 652:Drivers/STM32G4xx_HAL_Driver/Src/stm32g4xx_hal_rcc.c ****         /* Enable the main PLL. */
 653:Drivers/STM32G4xx_HAL_Driver/Src/stm32g4xx_hal_rcc.c ****         __HAL_RCC_PLL_ENABLE();
 654:Drivers/STM32G4xx_HAL_Driver/Src/stm32g4xx_hal_rcc.c **** 
 655:Drivers/STM32G4xx_HAL_Driver/Src/stm32g4xx_hal_rcc.c ****         /* Enable PLL System Clock output. */
 656:Drivers/STM32G4xx_HAL_Driver/Src/stm32g4xx_hal_rcc.c ****          __HAL_RCC_PLLCLKOUT_ENABLE(RCC_PLL_SYSCLK);
 657:Drivers/STM32G4xx_HAL_Driver/Src/stm32g4xx_hal_rcc.c **** 
 658:Drivers/STM32G4xx_HAL_Driver/Src/stm32g4xx_hal_rcc.c ****         /* Get Start Tick*/
 659:Drivers/STM32G4xx_HAL_Driver/Src/stm32g4xx_hal_rcc.c ****         tickstart = HAL_GetTick();
ARM GAS  C:\Users\82057\AppData\Local\Temp\ccODTTN9.s 			page 13


 660:Drivers/STM32G4xx_HAL_Driver/Src/stm32g4xx_hal_rcc.c **** 
 661:Drivers/STM32G4xx_HAL_Driver/Src/stm32g4xx_hal_rcc.c ****         /* Wait till PLL is ready */
 662:Drivers/STM32G4xx_HAL_Driver/Src/stm32g4xx_hal_rcc.c ****         while (READ_BIT(RCC->CR, RCC_CR_PLLRDY) == 0U)
 663:Drivers/STM32G4xx_HAL_Driver/Src/stm32g4xx_hal_rcc.c ****         {
 664:Drivers/STM32G4xx_HAL_Driver/Src/stm32g4xx_hal_rcc.c ****           if ((HAL_GetTick() - tickstart) > PLL_TIMEOUT_VALUE)
 665:Drivers/STM32G4xx_HAL_Driver/Src/stm32g4xx_hal_rcc.c ****           {
 666:Drivers/STM32G4xx_HAL_Driver/Src/stm32g4xx_hal_rcc.c ****             return HAL_TIMEOUT;
 667:Drivers/STM32G4xx_HAL_Driver/Src/stm32g4xx_hal_rcc.c ****           }
 668:Drivers/STM32G4xx_HAL_Driver/Src/stm32g4xx_hal_rcc.c ****         }
 669:Drivers/STM32G4xx_HAL_Driver/Src/stm32g4xx_hal_rcc.c ****       }
 670:Drivers/STM32G4xx_HAL_Driver/Src/stm32g4xx_hal_rcc.c ****       else
 671:Drivers/STM32G4xx_HAL_Driver/Src/stm32g4xx_hal_rcc.c ****       {
 672:Drivers/STM32G4xx_HAL_Driver/Src/stm32g4xx_hal_rcc.c ****         /* Disable the main PLL. */
 673:Drivers/STM32G4xx_HAL_Driver/Src/stm32g4xx_hal_rcc.c ****         __HAL_RCC_PLL_DISABLE();
 674:Drivers/STM32G4xx_HAL_Driver/Src/stm32g4xx_hal_rcc.c **** 
 675:Drivers/STM32G4xx_HAL_Driver/Src/stm32g4xx_hal_rcc.c ****         /* Get Start Tick*/
 676:Drivers/STM32G4xx_HAL_Driver/Src/stm32g4xx_hal_rcc.c ****         tickstart = HAL_GetTick();
 677:Drivers/STM32G4xx_HAL_Driver/Src/stm32g4xx_hal_rcc.c **** 
 678:Drivers/STM32G4xx_HAL_Driver/Src/stm32g4xx_hal_rcc.c ****         /* Wait till PLL is disabled */
 679:Drivers/STM32G4xx_HAL_Driver/Src/stm32g4xx_hal_rcc.c ****         while (READ_BIT(RCC->CR, RCC_CR_PLLRDY) != 0U)
 680:Drivers/STM32G4xx_HAL_Driver/Src/stm32g4xx_hal_rcc.c ****         {
 681:Drivers/STM32G4xx_HAL_Driver/Src/stm32g4xx_hal_rcc.c ****           if ((HAL_GetTick() - tickstart) > PLL_TIMEOUT_VALUE)
 682:Drivers/STM32G4xx_HAL_Driver/Src/stm32g4xx_hal_rcc.c ****           {
 683:Drivers/STM32G4xx_HAL_Driver/Src/stm32g4xx_hal_rcc.c ****             return HAL_TIMEOUT;
 684:Drivers/STM32G4xx_HAL_Driver/Src/stm32g4xx_hal_rcc.c ****           }
 685:Drivers/STM32G4xx_HAL_Driver/Src/stm32g4xx_hal_rcc.c ****         }
 686:Drivers/STM32G4xx_HAL_Driver/Src/stm32g4xx_hal_rcc.c **** 
 687:Drivers/STM32G4xx_HAL_Driver/Src/stm32g4xx_hal_rcc.c ****         /* Unselect PLL clock source and disable outputs to save power */
 688:Drivers/STM32G4xx_HAL_Driver/Src/stm32g4xx_hal_rcc.c ****         RCC->PLLCFGR &= ~(RCC_PLLCFGR_PLLSRC | RCC_PLL_SYSCLK | RCC_PLL_48M1CLK | RCC_PLL_ADCCLK);
 689:Drivers/STM32G4xx_HAL_Driver/Src/stm32g4xx_hal_rcc.c ****       }
 690:Drivers/STM32G4xx_HAL_Driver/Src/stm32g4xx_hal_rcc.c ****     }
 691:Drivers/STM32G4xx_HAL_Driver/Src/stm32g4xx_hal_rcc.c ****     else
 692:Drivers/STM32G4xx_HAL_Driver/Src/stm32g4xx_hal_rcc.c ****     {
 693:Drivers/STM32G4xx_HAL_Driver/Src/stm32g4xx_hal_rcc.c ****       /* Check if there is a request to disable the PLL used as System clock source */
 694:Drivers/STM32G4xx_HAL_Driver/Src/stm32g4xx_hal_rcc.c ****       if((RCC_OscInitStruct->PLL.PLLState) == RCC_PLL_OFF)
 695:Drivers/STM32G4xx_HAL_Driver/Src/stm32g4xx_hal_rcc.c ****       {
 696:Drivers/STM32G4xx_HAL_Driver/Src/stm32g4xx_hal_rcc.c ****         return HAL_ERROR;
 697:Drivers/STM32G4xx_HAL_Driver/Src/stm32g4xx_hal_rcc.c ****       }
 698:Drivers/STM32G4xx_HAL_Driver/Src/stm32g4xx_hal_rcc.c ****       else
 699:Drivers/STM32G4xx_HAL_Driver/Src/stm32g4xx_hal_rcc.c ****       {
 700:Drivers/STM32G4xx_HAL_Driver/Src/stm32g4xx_hal_rcc.c ****       /* Do not return HAL_ERROR if request repeats the current configuration */
 701:Drivers/STM32G4xx_HAL_Driver/Src/stm32g4xx_hal_rcc.c ****       temp_pllckcfg = RCC->PLLCFGR;
 702:Drivers/STM32G4xx_HAL_Driver/Src/stm32g4xx_hal_rcc.c ****       if((READ_BIT(temp_pllckcfg, RCC_PLLCFGR_PLLSRC) != RCC_OscInitStruct->PLL.PLLSource) ||
 703:Drivers/STM32G4xx_HAL_Driver/Src/stm32g4xx_hal_rcc.c ****          (READ_BIT(temp_pllckcfg, RCC_PLLCFGR_PLLM) != (((RCC_OscInitStruct->PLL.PLLM) - 1U) << RCC
 704:Drivers/STM32G4xx_HAL_Driver/Src/stm32g4xx_hal_rcc.c ****          (READ_BIT(temp_pllckcfg, RCC_PLLCFGR_PLLN) != ((RCC_OscInitStruct->PLL.PLLN) << RCC_PLLCFG
 705:Drivers/STM32G4xx_HAL_Driver/Src/stm32g4xx_hal_rcc.c ****          (READ_BIT(temp_pllckcfg, RCC_PLLCFGR_PLLPDIV) != ((RCC_OscInitStruct->PLL.PLLP) << RCC_PLL
 706:Drivers/STM32G4xx_HAL_Driver/Src/stm32g4xx_hal_rcc.c ****          (READ_BIT(temp_pllckcfg, RCC_PLLCFGR_PLLQ) != ((((RCC_OscInitStruct->PLL.PLLQ) >> 1U) - 1U
 707:Drivers/STM32G4xx_HAL_Driver/Src/stm32g4xx_hal_rcc.c ****          (READ_BIT(temp_pllckcfg, RCC_PLLCFGR_PLLR) != ((((RCC_OscInitStruct->PLL.PLLR) >> 1U) - 1U
 708:Drivers/STM32G4xx_HAL_Driver/Src/stm32g4xx_hal_rcc.c ****       {
 709:Drivers/STM32G4xx_HAL_Driver/Src/stm32g4xx_hal_rcc.c ****         return HAL_ERROR;
 710:Drivers/STM32G4xx_HAL_Driver/Src/stm32g4xx_hal_rcc.c ****       }
 711:Drivers/STM32G4xx_HAL_Driver/Src/stm32g4xx_hal_rcc.c ****     }
 712:Drivers/STM32G4xx_HAL_Driver/Src/stm32g4xx_hal_rcc.c ****   }
 713:Drivers/STM32G4xx_HAL_Driver/Src/stm32g4xx_hal_rcc.c ****   }
 714:Drivers/STM32G4xx_HAL_Driver/Src/stm32g4xx_hal_rcc.c **** 
 715:Drivers/STM32G4xx_HAL_Driver/Src/stm32g4xx_hal_rcc.c ****   return HAL_OK;
 716:Drivers/STM32G4xx_HAL_Driver/Src/stm32g4xx_hal_rcc.c **** }
ARM GAS  C:\Users\82057\AppData\Local\Temp\ccODTTN9.s 			page 14


 717:Drivers/STM32G4xx_HAL_Driver/Src/stm32g4xx_hal_rcc.c **** 
 718:Drivers/STM32G4xx_HAL_Driver/Src/stm32g4xx_hal_rcc.c **** /**
 719:Drivers/STM32G4xx_HAL_Driver/Src/stm32g4xx_hal_rcc.c ****   * @brief  Initialize the CPU, AHB and APB buses clocks according to the specified
 720:Drivers/STM32G4xx_HAL_Driver/Src/stm32g4xx_hal_rcc.c ****   *         parameters in the RCC_ClkInitStruct.
 721:Drivers/STM32G4xx_HAL_Driver/Src/stm32g4xx_hal_rcc.c ****   * @param  RCC_ClkInitStruct  pointer to an RCC_OscInitTypeDef structure that
 722:Drivers/STM32G4xx_HAL_Driver/Src/stm32g4xx_hal_rcc.c ****   *         contains the configuration information for the RCC peripheral.
 723:Drivers/STM32G4xx_HAL_Driver/Src/stm32g4xx_hal_rcc.c ****   * @param  FLatency  FLASH Latency
 724:Drivers/STM32G4xx_HAL_Driver/Src/stm32g4xx_hal_rcc.c ****   *          This parameter can be one of the following values:
 725:Drivers/STM32G4xx_HAL_Driver/Src/stm32g4xx_hal_rcc.c ****   *            @arg FLASH_LATENCY_0   FLASH 0 Latency cycle
 726:Drivers/STM32G4xx_HAL_Driver/Src/stm32g4xx_hal_rcc.c ****   *            @arg FLASH_LATENCY_1   FLASH 1 Latency cycle
 727:Drivers/STM32G4xx_HAL_Driver/Src/stm32g4xx_hal_rcc.c ****   *            @arg FLASH_LATENCY_2   FLASH 2 Latency cycles
 728:Drivers/STM32G4xx_HAL_Driver/Src/stm32g4xx_hal_rcc.c ****   *            @arg FLASH_LATENCY_3   FLASH 3 Latency cycles
 729:Drivers/STM32G4xx_HAL_Driver/Src/stm32g4xx_hal_rcc.c ****   *            @arg FLASH_LATENCY_4   FLASH 4 Latency cycles
 730:Drivers/STM32G4xx_HAL_Driver/Src/stm32g4xx_hal_rcc.c ****   *            @arg FLASH_LATENCY_5   FLASH 5 Latency cycles
 731:Drivers/STM32G4xx_HAL_Driver/Src/stm32g4xx_hal_rcc.c ****   *            @arg FLASH_LATENCY_6   FLASH 6 Latency cycles
 732:Drivers/STM32G4xx_HAL_Driver/Src/stm32g4xx_hal_rcc.c ****   *            @arg FLASH_LATENCY_7   FLASH 7 Latency cycles
 733:Drivers/STM32G4xx_HAL_Driver/Src/stm32g4xx_hal_rcc.c ****   *            @arg FLASH_LATENCY_8   FLASH 8 Latency cycles
 734:Drivers/STM32G4xx_HAL_Driver/Src/stm32g4xx_hal_rcc.c ****   *            @arg FLASH_LATENCY_9   FLASH 9 Latency cycles
 735:Drivers/STM32G4xx_HAL_Driver/Src/stm32g4xx_hal_rcc.c ****   *            @arg FLASH_LATENCY_10  FLASH 10 Latency cycles
 736:Drivers/STM32G4xx_HAL_Driver/Src/stm32g4xx_hal_rcc.c ****   *            @arg FLASH_LATENCY_11  FLASH 11 Latency cycles
 737:Drivers/STM32G4xx_HAL_Driver/Src/stm32g4xx_hal_rcc.c ****   *            @arg FLASH_LATENCY_12  FLASH 12 Latency cycles
 738:Drivers/STM32G4xx_HAL_Driver/Src/stm32g4xx_hal_rcc.c ****   *            @arg FLASH_LATENCY_13  FLASH 13 Latency cycles
 739:Drivers/STM32G4xx_HAL_Driver/Src/stm32g4xx_hal_rcc.c ****   *            @arg FLASH_LATENCY_14  FLASH 14 Latency cycles
 740:Drivers/STM32G4xx_HAL_Driver/Src/stm32g4xx_hal_rcc.c ****   *            @arg FLASH_LATENCY_15  FLASH 15 Latency cycles
 741:Drivers/STM32G4xx_HAL_Driver/Src/stm32g4xx_hal_rcc.c ****   *
 742:Drivers/STM32G4xx_HAL_Driver/Src/stm32g4xx_hal_rcc.c ****   * @note   The SystemCoreClock CMSIS variable is used to store System Clock Frequency
 743:Drivers/STM32G4xx_HAL_Driver/Src/stm32g4xx_hal_rcc.c ****   *         and updated by HAL_RCC_GetHCLKFreq() function called within this function
 744:Drivers/STM32G4xx_HAL_Driver/Src/stm32g4xx_hal_rcc.c ****   *
 745:Drivers/STM32G4xx_HAL_Driver/Src/stm32g4xx_hal_rcc.c ****   * @note   The HSI is used by default as system clock source after
 746:Drivers/STM32G4xx_HAL_Driver/Src/stm32g4xx_hal_rcc.c ****   *         startup from Reset, wake-up from STANDBY mode. After restart from Reset,
 747:Drivers/STM32G4xx_HAL_Driver/Src/stm32g4xx_hal_rcc.c ****   *         the HSI frequency is set to its default value 16 MHz.
 748:Drivers/STM32G4xx_HAL_Driver/Src/stm32g4xx_hal_rcc.c ****   *
 749:Drivers/STM32G4xx_HAL_Driver/Src/stm32g4xx_hal_rcc.c ****   * @note   The HSI can be selected as system clock source after
 750:Drivers/STM32G4xx_HAL_Driver/Src/stm32g4xx_hal_rcc.c ****   *         from STOP modes or in case of failure of the HSE used directly or indirectly
 751:Drivers/STM32G4xx_HAL_Driver/Src/stm32g4xx_hal_rcc.c ****   *         as system clock (if the Clock Security System CSS is enabled).
 752:Drivers/STM32G4xx_HAL_Driver/Src/stm32g4xx_hal_rcc.c ****   *
 753:Drivers/STM32G4xx_HAL_Driver/Src/stm32g4xx_hal_rcc.c ****   * @note   A switch from one clock source to another occurs only if the target
 754:Drivers/STM32G4xx_HAL_Driver/Src/stm32g4xx_hal_rcc.c ****   *         clock source is ready (clock stable after startup delay or PLL locked).
 755:Drivers/STM32G4xx_HAL_Driver/Src/stm32g4xx_hal_rcc.c ****   *         If a clock source which is not yet ready is selected, the switch will
 756:Drivers/STM32G4xx_HAL_Driver/Src/stm32g4xx_hal_rcc.c ****   *         occur when the clock source is ready.
 757:Drivers/STM32G4xx_HAL_Driver/Src/stm32g4xx_hal_rcc.c ****   *
 758:Drivers/STM32G4xx_HAL_Driver/Src/stm32g4xx_hal_rcc.c ****   * @note   You can use HAL_RCC_GetClockConfig() function to know which clock is
 759:Drivers/STM32G4xx_HAL_Driver/Src/stm32g4xx_hal_rcc.c ****   *         currently used as system clock source.
 760:Drivers/STM32G4xx_HAL_Driver/Src/stm32g4xx_hal_rcc.c ****   *
 761:Drivers/STM32G4xx_HAL_Driver/Src/stm32g4xx_hal_rcc.c ****   * @note   Depending on the device voltage range, the software has to set correctly
 762:Drivers/STM32G4xx_HAL_Driver/Src/stm32g4xx_hal_rcc.c ****   *         HPRE[3:0] bits to ensure that HCLK not exceed the maximum allowed frequency
 763:Drivers/STM32G4xx_HAL_Driver/Src/stm32g4xx_hal_rcc.c ****   *         (for more details refer to section above "Initialization/de-initialization functions")
 764:Drivers/STM32G4xx_HAL_Driver/Src/stm32g4xx_hal_rcc.c ****   * @retval None
 765:Drivers/STM32G4xx_HAL_Driver/Src/stm32g4xx_hal_rcc.c ****   */
 766:Drivers/STM32G4xx_HAL_Driver/Src/stm32g4xx_hal_rcc.c **** HAL_StatusTypeDef HAL_RCC_ClockConfig(RCC_ClkInitTypeDef  *RCC_ClkInitStruct, uint32_t FLatency)
 767:Drivers/STM32G4xx_HAL_Driver/Src/stm32g4xx_hal_rcc.c **** {
 768:Drivers/STM32G4xx_HAL_Driver/Src/stm32g4xx_hal_rcc.c ****   uint32_t tickstart;
 769:Drivers/STM32G4xx_HAL_Driver/Src/stm32g4xx_hal_rcc.c ****   uint32_t pllfreq;
 770:Drivers/STM32G4xx_HAL_Driver/Src/stm32g4xx_hal_rcc.c ****   uint32_t hpre = RCC_SYSCLK_DIV1;
 771:Drivers/STM32G4xx_HAL_Driver/Src/stm32g4xx_hal_rcc.c **** 
 772:Drivers/STM32G4xx_HAL_Driver/Src/stm32g4xx_hal_rcc.c ****   /* Check Null pointer */
 773:Drivers/STM32G4xx_HAL_Driver/Src/stm32g4xx_hal_rcc.c ****   if (RCC_ClkInitStruct == NULL)
ARM GAS  C:\Users\82057\AppData\Local\Temp\ccODTTN9.s 			page 15


 774:Drivers/STM32G4xx_HAL_Driver/Src/stm32g4xx_hal_rcc.c ****   {
 775:Drivers/STM32G4xx_HAL_Driver/Src/stm32g4xx_hal_rcc.c ****     return HAL_ERROR;
 776:Drivers/STM32G4xx_HAL_Driver/Src/stm32g4xx_hal_rcc.c ****   }
 777:Drivers/STM32G4xx_HAL_Driver/Src/stm32g4xx_hal_rcc.c **** 
 778:Drivers/STM32G4xx_HAL_Driver/Src/stm32g4xx_hal_rcc.c ****   /* Check the parameters */
 779:Drivers/STM32G4xx_HAL_Driver/Src/stm32g4xx_hal_rcc.c ****   assert_param(IS_RCC_CLOCKTYPE(RCC_ClkInitStruct->ClockType));
 780:Drivers/STM32G4xx_HAL_Driver/Src/stm32g4xx_hal_rcc.c ****   assert_param(IS_FLASH_LATENCY(FLatency));
 781:Drivers/STM32G4xx_HAL_Driver/Src/stm32g4xx_hal_rcc.c **** 
 782:Drivers/STM32G4xx_HAL_Driver/Src/stm32g4xx_hal_rcc.c ****   /* To correctly read data from FLASH memory, the number of wait states (LATENCY)
 783:Drivers/STM32G4xx_HAL_Driver/Src/stm32g4xx_hal_rcc.c ****     must be correctly programmed according to the frequency of the CPU clock
 784:Drivers/STM32G4xx_HAL_Driver/Src/stm32g4xx_hal_rcc.c ****     (HCLK) and the supply voltage of the device. */
 785:Drivers/STM32G4xx_HAL_Driver/Src/stm32g4xx_hal_rcc.c **** 
 786:Drivers/STM32G4xx_HAL_Driver/Src/stm32g4xx_hal_rcc.c ****   /* Increasing the number of wait states because of higher CPU frequency */
 787:Drivers/STM32G4xx_HAL_Driver/Src/stm32g4xx_hal_rcc.c ****   if (FLatency > __HAL_FLASH_GET_LATENCY())
 788:Drivers/STM32G4xx_HAL_Driver/Src/stm32g4xx_hal_rcc.c ****   {
 789:Drivers/STM32G4xx_HAL_Driver/Src/stm32g4xx_hal_rcc.c ****     /* Program the new number of wait states to the LATENCY bits in the FLASH_ACR register */
 790:Drivers/STM32G4xx_HAL_Driver/Src/stm32g4xx_hal_rcc.c ****     __HAL_FLASH_SET_LATENCY(FLatency);
 791:Drivers/STM32G4xx_HAL_Driver/Src/stm32g4xx_hal_rcc.c **** 
 792:Drivers/STM32G4xx_HAL_Driver/Src/stm32g4xx_hal_rcc.c ****     /* Check that the new number of wait states is taken into account to access the Flash
 793:Drivers/STM32G4xx_HAL_Driver/Src/stm32g4xx_hal_rcc.c ****     memory by reading the FLASH_ACR register */
 794:Drivers/STM32G4xx_HAL_Driver/Src/stm32g4xx_hal_rcc.c ****     if (__HAL_FLASH_GET_LATENCY() != FLatency)
 795:Drivers/STM32G4xx_HAL_Driver/Src/stm32g4xx_hal_rcc.c ****     {
 796:Drivers/STM32G4xx_HAL_Driver/Src/stm32g4xx_hal_rcc.c ****       return HAL_ERROR;
 797:Drivers/STM32G4xx_HAL_Driver/Src/stm32g4xx_hal_rcc.c ****     }
 798:Drivers/STM32G4xx_HAL_Driver/Src/stm32g4xx_hal_rcc.c ****   }
 799:Drivers/STM32G4xx_HAL_Driver/Src/stm32g4xx_hal_rcc.c **** 
 800:Drivers/STM32G4xx_HAL_Driver/Src/stm32g4xx_hal_rcc.c ****   /*------------------------- SYSCLK Configuration ---------------------------*/
 801:Drivers/STM32G4xx_HAL_Driver/Src/stm32g4xx_hal_rcc.c ****   if(((RCC_ClkInitStruct->ClockType) & RCC_CLOCKTYPE_SYSCLK) == RCC_CLOCKTYPE_SYSCLK)
 802:Drivers/STM32G4xx_HAL_Driver/Src/stm32g4xx_hal_rcc.c ****   {
 803:Drivers/STM32G4xx_HAL_Driver/Src/stm32g4xx_hal_rcc.c ****     assert_param(IS_RCC_SYSCLKSOURCE(RCC_ClkInitStruct->SYSCLKSource));
 804:Drivers/STM32G4xx_HAL_Driver/Src/stm32g4xx_hal_rcc.c **** 
 805:Drivers/STM32G4xx_HAL_Driver/Src/stm32g4xx_hal_rcc.c ****     /* PLL is selected as System Clock Source */
 806:Drivers/STM32G4xx_HAL_Driver/Src/stm32g4xx_hal_rcc.c ****     if (RCC_ClkInitStruct->SYSCLKSource == RCC_SYSCLKSOURCE_PLLCLK)
 807:Drivers/STM32G4xx_HAL_Driver/Src/stm32g4xx_hal_rcc.c ****     {
 808:Drivers/STM32G4xx_HAL_Driver/Src/stm32g4xx_hal_rcc.c ****       /* Check the PLL ready flag */
 809:Drivers/STM32G4xx_HAL_Driver/Src/stm32g4xx_hal_rcc.c ****       if (READ_BIT(RCC->CR, RCC_CR_PLLRDY) == 0U)
 810:Drivers/STM32G4xx_HAL_Driver/Src/stm32g4xx_hal_rcc.c ****       {
 811:Drivers/STM32G4xx_HAL_Driver/Src/stm32g4xx_hal_rcc.c ****         return HAL_ERROR;
 812:Drivers/STM32G4xx_HAL_Driver/Src/stm32g4xx_hal_rcc.c ****       }
 813:Drivers/STM32G4xx_HAL_Driver/Src/stm32g4xx_hal_rcc.c ****       /* Undershoot management when selection PLL as SYSCLK source and frequency above 80Mhz */
 814:Drivers/STM32G4xx_HAL_Driver/Src/stm32g4xx_hal_rcc.c ****       /* Compute target PLL output frequency */
 815:Drivers/STM32G4xx_HAL_Driver/Src/stm32g4xx_hal_rcc.c ****       pllfreq = RCC_GetSysClockFreqFromPLLSource();
 816:Drivers/STM32G4xx_HAL_Driver/Src/stm32g4xx_hal_rcc.c **** 
 817:Drivers/STM32G4xx_HAL_Driver/Src/stm32g4xx_hal_rcc.c ****       /* Intermediate step with HCLK prescaler 2 necessary before to go over 80Mhz */
 818:Drivers/STM32G4xx_HAL_Driver/Src/stm32g4xx_hal_rcc.c ****       if(pllfreq > 80000000U)
 819:Drivers/STM32G4xx_HAL_Driver/Src/stm32g4xx_hal_rcc.c ****       {
 820:Drivers/STM32G4xx_HAL_Driver/Src/stm32g4xx_hal_rcc.c ****         if (((READ_BIT(RCC->CFGR, RCC_CFGR_HPRE) == RCC_SYSCLK_DIV1)) ||
 821:Drivers/STM32G4xx_HAL_Driver/Src/stm32g4xx_hal_rcc.c ****             (((((RCC_ClkInitStruct->ClockType) & RCC_CLOCKTYPE_HCLK) == RCC_CLOCKTYPE_HCLK) &&
 822:Drivers/STM32G4xx_HAL_Driver/Src/stm32g4xx_hal_rcc.c ****               (RCC_ClkInitStruct->AHBCLKDivider == RCC_SYSCLK_DIV1))))
 823:Drivers/STM32G4xx_HAL_Driver/Src/stm32g4xx_hal_rcc.c ****         {
 824:Drivers/STM32G4xx_HAL_Driver/Src/stm32g4xx_hal_rcc.c ****           MODIFY_REG(RCC->CFGR, RCC_CFGR_HPRE, RCC_SYSCLK_DIV2);
 825:Drivers/STM32G4xx_HAL_Driver/Src/stm32g4xx_hal_rcc.c ****           hpre = RCC_SYSCLK_DIV2;
 826:Drivers/STM32G4xx_HAL_Driver/Src/stm32g4xx_hal_rcc.c ****         }
 827:Drivers/STM32G4xx_HAL_Driver/Src/stm32g4xx_hal_rcc.c ****       }
 828:Drivers/STM32G4xx_HAL_Driver/Src/stm32g4xx_hal_rcc.c ****     }
 829:Drivers/STM32G4xx_HAL_Driver/Src/stm32g4xx_hal_rcc.c ****     else
 830:Drivers/STM32G4xx_HAL_Driver/Src/stm32g4xx_hal_rcc.c ****     {
ARM GAS  C:\Users\82057\AppData\Local\Temp\ccODTTN9.s 			page 16


 831:Drivers/STM32G4xx_HAL_Driver/Src/stm32g4xx_hal_rcc.c ****       /* HSE is selected as System Clock Source */
 832:Drivers/STM32G4xx_HAL_Driver/Src/stm32g4xx_hal_rcc.c ****       if (RCC_ClkInitStruct->SYSCLKSource == RCC_SYSCLKSOURCE_HSE)
 833:Drivers/STM32G4xx_HAL_Driver/Src/stm32g4xx_hal_rcc.c ****       {
 834:Drivers/STM32G4xx_HAL_Driver/Src/stm32g4xx_hal_rcc.c ****         /* Check the HSE ready flag */
 835:Drivers/STM32G4xx_HAL_Driver/Src/stm32g4xx_hal_rcc.c ****         if(READ_BIT(RCC->CR, RCC_CR_HSERDY) == 0U)
 836:Drivers/STM32G4xx_HAL_Driver/Src/stm32g4xx_hal_rcc.c ****         {
 837:Drivers/STM32G4xx_HAL_Driver/Src/stm32g4xx_hal_rcc.c ****           return HAL_ERROR;
 838:Drivers/STM32G4xx_HAL_Driver/Src/stm32g4xx_hal_rcc.c ****         }
 839:Drivers/STM32G4xx_HAL_Driver/Src/stm32g4xx_hal_rcc.c ****       }
 840:Drivers/STM32G4xx_HAL_Driver/Src/stm32g4xx_hal_rcc.c ****       /* HSI is selected as System Clock Source */
 841:Drivers/STM32G4xx_HAL_Driver/Src/stm32g4xx_hal_rcc.c ****       else
 842:Drivers/STM32G4xx_HAL_Driver/Src/stm32g4xx_hal_rcc.c ****       {
 843:Drivers/STM32G4xx_HAL_Driver/Src/stm32g4xx_hal_rcc.c ****         /* Check the HSI ready flag */
 844:Drivers/STM32G4xx_HAL_Driver/Src/stm32g4xx_hal_rcc.c ****         if(READ_BIT(RCC->CR, RCC_CR_HSIRDY) == 0U)
 845:Drivers/STM32G4xx_HAL_Driver/Src/stm32g4xx_hal_rcc.c ****         {
 846:Drivers/STM32G4xx_HAL_Driver/Src/stm32g4xx_hal_rcc.c ****           return HAL_ERROR;
 847:Drivers/STM32G4xx_HAL_Driver/Src/stm32g4xx_hal_rcc.c ****         }
 848:Drivers/STM32G4xx_HAL_Driver/Src/stm32g4xx_hal_rcc.c ****       }
 849:Drivers/STM32G4xx_HAL_Driver/Src/stm32g4xx_hal_rcc.c ****       /* Overshoot management when going down from PLL as SYSCLK source and frequency above 80Mhz *
 850:Drivers/STM32G4xx_HAL_Driver/Src/stm32g4xx_hal_rcc.c ****       pllfreq = HAL_RCC_GetSysClockFreq();
 851:Drivers/STM32G4xx_HAL_Driver/Src/stm32g4xx_hal_rcc.c **** 
 852:Drivers/STM32G4xx_HAL_Driver/Src/stm32g4xx_hal_rcc.c ****       /* Intermediate step with HCLK prescaler 2 necessary before to go under 80Mhz */
 853:Drivers/STM32G4xx_HAL_Driver/Src/stm32g4xx_hal_rcc.c ****       if(pllfreq > 80000000U)
 854:Drivers/STM32G4xx_HAL_Driver/Src/stm32g4xx_hal_rcc.c ****       {
 855:Drivers/STM32G4xx_HAL_Driver/Src/stm32g4xx_hal_rcc.c ****         MODIFY_REG(RCC->CFGR, RCC_CFGR_HPRE, RCC_SYSCLK_DIV2);
 856:Drivers/STM32G4xx_HAL_Driver/Src/stm32g4xx_hal_rcc.c ****         hpre = RCC_SYSCLK_DIV2;
 857:Drivers/STM32G4xx_HAL_Driver/Src/stm32g4xx_hal_rcc.c ****       }
 858:Drivers/STM32G4xx_HAL_Driver/Src/stm32g4xx_hal_rcc.c **** 
 859:Drivers/STM32G4xx_HAL_Driver/Src/stm32g4xx_hal_rcc.c ****     }
 860:Drivers/STM32G4xx_HAL_Driver/Src/stm32g4xx_hal_rcc.c **** 
 861:Drivers/STM32G4xx_HAL_Driver/Src/stm32g4xx_hal_rcc.c ****     MODIFY_REG(RCC->CFGR, RCC_CFGR_SW, RCC_ClkInitStruct->SYSCLKSource);
 862:Drivers/STM32G4xx_HAL_Driver/Src/stm32g4xx_hal_rcc.c **** 
 863:Drivers/STM32G4xx_HAL_Driver/Src/stm32g4xx_hal_rcc.c ****     /* Get Start Tick*/
 864:Drivers/STM32G4xx_HAL_Driver/Src/stm32g4xx_hal_rcc.c ****     tickstart = HAL_GetTick();
 865:Drivers/STM32G4xx_HAL_Driver/Src/stm32g4xx_hal_rcc.c **** 
 866:Drivers/STM32G4xx_HAL_Driver/Src/stm32g4xx_hal_rcc.c ****     while (__HAL_RCC_GET_SYSCLK_SOURCE() != (RCC_ClkInitStruct->SYSCLKSource << RCC_CFGR_SWS_Pos))
 867:Drivers/STM32G4xx_HAL_Driver/Src/stm32g4xx_hal_rcc.c ****     {
 868:Drivers/STM32G4xx_HAL_Driver/Src/stm32g4xx_hal_rcc.c ****       if ((HAL_GetTick() - tickstart) > CLOCKSWITCH_TIMEOUT_VALUE)
 869:Drivers/STM32G4xx_HAL_Driver/Src/stm32g4xx_hal_rcc.c ****       {
 870:Drivers/STM32G4xx_HAL_Driver/Src/stm32g4xx_hal_rcc.c ****         return HAL_TIMEOUT;
 871:Drivers/STM32G4xx_HAL_Driver/Src/stm32g4xx_hal_rcc.c ****       }
 872:Drivers/STM32G4xx_HAL_Driver/Src/stm32g4xx_hal_rcc.c ****     }
 873:Drivers/STM32G4xx_HAL_Driver/Src/stm32g4xx_hal_rcc.c ****   }
 874:Drivers/STM32G4xx_HAL_Driver/Src/stm32g4xx_hal_rcc.c **** 
 875:Drivers/STM32G4xx_HAL_Driver/Src/stm32g4xx_hal_rcc.c ****   /*-------------------------- HCLK Configuration --------------------------*/
 876:Drivers/STM32G4xx_HAL_Driver/Src/stm32g4xx_hal_rcc.c ****   if (((RCC_ClkInitStruct->ClockType) & RCC_CLOCKTYPE_HCLK) == RCC_CLOCKTYPE_HCLK)
 877:Drivers/STM32G4xx_HAL_Driver/Src/stm32g4xx_hal_rcc.c ****   {
 878:Drivers/STM32G4xx_HAL_Driver/Src/stm32g4xx_hal_rcc.c ****     /* Set the highest APB divider in order to ensure that we do not go through
 879:Drivers/STM32G4xx_HAL_Driver/Src/stm32g4xx_hal_rcc.c ****        a non-spec phase whatever we decrease or increase HCLK. */
 880:Drivers/STM32G4xx_HAL_Driver/Src/stm32g4xx_hal_rcc.c ****     if (((RCC_ClkInitStruct->ClockType) & RCC_CLOCKTYPE_PCLK1) == RCC_CLOCKTYPE_PCLK1)
 881:Drivers/STM32G4xx_HAL_Driver/Src/stm32g4xx_hal_rcc.c ****     {
 882:Drivers/STM32G4xx_HAL_Driver/Src/stm32g4xx_hal_rcc.c ****       MODIFY_REG(RCC->CFGR, RCC_CFGR_PPRE1, RCC_HCLK_DIV16);
 883:Drivers/STM32G4xx_HAL_Driver/Src/stm32g4xx_hal_rcc.c ****     }
 884:Drivers/STM32G4xx_HAL_Driver/Src/stm32g4xx_hal_rcc.c ****     if (((RCC_ClkInitStruct->ClockType) & RCC_CLOCKTYPE_PCLK2) == RCC_CLOCKTYPE_PCLK2)
 885:Drivers/STM32G4xx_HAL_Driver/Src/stm32g4xx_hal_rcc.c ****     {
 886:Drivers/STM32G4xx_HAL_Driver/Src/stm32g4xx_hal_rcc.c ****       MODIFY_REG(RCC->CFGR, RCC_CFGR_PPRE2, RCC_HCLK_DIV16);
 887:Drivers/STM32G4xx_HAL_Driver/Src/stm32g4xx_hal_rcc.c ****     }
ARM GAS  C:\Users\82057\AppData\Local\Temp\ccODTTN9.s 			page 17


 888:Drivers/STM32G4xx_HAL_Driver/Src/stm32g4xx_hal_rcc.c **** 
 889:Drivers/STM32G4xx_HAL_Driver/Src/stm32g4xx_hal_rcc.c ****     /* Set the new HCLK clock divider */
 890:Drivers/STM32G4xx_HAL_Driver/Src/stm32g4xx_hal_rcc.c ****     assert_param(IS_RCC_HCLK(RCC_ClkInitStruct->AHBCLKDivider));
 891:Drivers/STM32G4xx_HAL_Driver/Src/stm32g4xx_hal_rcc.c ****     MODIFY_REG(RCC->CFGR, RCC_CFGR_HPRE, RCC_ClkInitStruct->AHBCLKDivider);
 892:Drivers/STM32G4xx_HAL_Driver/Src/stm32g4xx_hal_rcc.c ****   }
 893:Drivers/STM32G4xx_HAL_Driver/Src/stm32g4xx_hal_rcc.c ****   else
 894:Drivers/STM32G4xx_HAL_Driver/Src/stm32g4xx_hal_rcc.c ****   {
 895:Drivers/STM32G4xx_HAL_Driver/Src/stm32g4xx_hal_rcc.c ****     /* Is intermediate HCLK prescaler 2 applied internally, complete with HCLK prescaler 1 */
 896:Drivers/STM32G4xx_HAL_Driver/Src/stm32g4xx_hal_rcc.c ****     if(hpre == RCC_SYSCLK_DIV2)
 897:Drivers/STM32G4xx_HAL_Driver/Src/stm32g4xx_hal_rcc.c ****     {
 898:Drivers/STM32G4xx_HAL_Driver/Src/stm32g4xx_hal_rcc.c ****       MODIFY_REG(RCC->CFGR, RCC_CFGR_HPRE, RCC_SYSCLK_DIV1);
 899:Drivers/STM32G4xx_HAL_Driver/Src/stm32g4xx_hal_rcc.c ****     }
 900:Drivers/STM32G4xx_HAL_Driver/Src/stm32g4xx_hal_rcc.c ****   }
 901:Drivers/STM32G4xx_HAL_Driver/Src/stm32g4xx_hal_rcc.c **** 
 902:Drivers/STM32G4xx_HAL_Driver/Src/stm32g4xx_hal_rcc.c ****   /* Decreasing the number of wait states because of lower CPU frequency */
 903:Drivers/STM32G4xx_HAL_Driver/Src/stm32g4xx_hal_rcc.c ****   if (FLatency < __HAL_FLASH_GET_LATENCY())
 904:Drivers/STM32G4xx_HAL_Driver/Src/stm32g4xx_hal_rcc.c ****   {
 905:Drivers/STM32G4xx_HAL_Driver/Src/stm32g4xx_hal_rcc.c ****     /* Program the new number of wait states to the LATENCY bits in the FLASH_ACR register */
 906:Drivers/STM32G4xx_HAL_Driver/Src/stm32g4xx_hal_rcc.c ****     __HAL_FLASH_SET_LATENCY(FLatency);
 907:Drivers/STM32G4xx_HAL_Driver/Src/stm32g4xx_hal_rcc.c **** 
 908:Drivers/STM32G4xx_HAL_Driver/Src/stm32g4xx_hal_rcc.c ****     /* Check that the new number of wait states is taken into account to access the Flash
 909:Drivers/STM32G4xx_HAL_Driver/Src/stm32g4xx_hal_rcc.c ****     memory by polling the FLASH_ACR register */
 910:Drivers/STM32G4xx_HAL_Driver/Src/stm32g4xx_hal_rcc.c ****     tickstart = HAL_GetTick();
 911:Drivers/STM32G4xx_HAL_Driver/Src/stm32g4xx_hal_rcc.c **** 
 912:Drivers/STM32G4xx_HAL_Driver/Src/stm32g4xx_hal_rcc.c ****     while (__HAL_FLASH_GET_LATENCY() != FLatency)
 913:Drivers/STM32G4xx_HAL_Driver/Src/stm32g4xx_hal_rcc.c ****     {
 914:Drivers/STM32G4xx_HAL_Driver/Src/stm32g4xx_hal_rcc.c ****       if ((HAL_GetTick() - tickstart) > CLOCKSWITCH_TIMEOUT_VALUE)
 915:Drivers/STM32G4xx_HAL_Driver/Src/stm32g4xx_hal_rcc.c ****       {
 916:Drivers/STM32G4xx_HAL_Driver/Src/stm32g4xx_hal_rcc.c ****         return HAL_TIMEOUT;
 917:Drivers/STM32G4xx_HAL_Driver/Src/stm32g4xx_hal_rcc.c ****       }
 918:Drivers/STM32G4xx_HAL_Driver/Src/stm32g4xx_hal_rcc.c ****     }
 919:Drivers/STM32G4xx_HAL_Driver/Src/stm32g4xx_hal_rcc.c ****   }
 920:Drivers/STM32G4xx_HAL_Driver/Src/stm32g4xx_hal_rcc.c **** 
 921:Drivers/STM32G4xx_HAL_Driver/Src/stm32g4xx_hal_rcc.c ****   /*-------------------------- PCLK1 Configuration ---------------------------*/
 922:Drivers/STM32G4xx_HAL_Driver/Src/stm32g4xx_hal_rcc.c ****   if (((RCC_ClkInitStruct->ClockType) & RCC_CLOCKTYPE_PCLK1) == RCC_CLOCKTYPE_PCLK1)
 923:Drivers/STM32G4xx_HAL_Driver/Src/stm32g4xx_hal_rcc.c ****   {
 924:Drivers/STM32G4xx_HAL_Driver/Src/stm32g4xx_hal_rcc.c ****     assert_param(IS_RCC_PCLK(RCC_ClkInitStruct->APB1CLKDivider));
 925:Drivers/STM32G4xx_HAL_Driver/Src/stm32g4xx_hal_rcc.c ****     MODIFY_REG(RCC->CFGR, RCC_CFGR_PPRE1, RCC_ClkInitStruct->APB1CLKDivider);
 926:Drivers/STM32G4xx_HAL_Driver/Src/stm32g4xx_hal_rcc.c ****   }
 927:Drivers/STM32G4xx_HAL_Driver/Src/stm32g4xx_hal_rcc.c **** 
 928:Drivers/STM32G4xx_HAL_Driver/Src/stm32g4xx_hal_rcc.c ****   /*-------------------------- PCLK2 Configuration ---------------------------*/
 929:Drivers/STM32G4xx_HAL_Driver/Src/stm32g4xx_hal_rcc.c ****   if(((RCC_ClkInitStruct->ClockType) & RCC_CLOCKTYPE_PCLK2) == RCC_CLOCKTYPE_PCLK2)
 930:Drivers/STM32G4xx_HAL_Driver/Src/stm32g4xx_hal_rcc.c ****   {
 931:Drivers/STM32G4xx_HAL_Driver/Src/stm32g4xx_hal_rcc.c ****     assert_param(IS_RCC_PCLK(RCC_ClkInitStruct->APB2CLKDivider));
 932:Drivers/STM32G4xx_HAL_Driver/Src/stm32g4xx_hal_rcc.c ****     MODIFY_REG(RCC->CFGR, RCC_CFGR_PPRE2, ((RCC_ClkInitStruct->APB2CLKDivider) << 3U));
 933:Drivers/STM32G4xx_HAL_Driver/Src/stm32g4xx_hal_rcc.c ****   }
 934:Drivers/STM32G4xx_HAL_Driver/Src/stm32g4xx_hal_rcc.c **** 
 935:Drivers/STM32G4xx_HAL_Driver/Src/stm32g4xx_hal_rcc.c ****   /* Update the SystemCoreClock global variable */
 936:Drivers/STM32G4xx_HAL_Driver/Src/stm32g4xx_hal_rcc.c ****   SystemCoreClock = HAL_RCC_GetSysClockFreq() >> (AHBPrescTable[READ_BIT(RCC->CFGR, RCC_CFGR_HPRE) 
 937:Drivers/STM32G4xx_HAL_Driver/Src/stm32g4xx_hal_rcc.c **** 
 938:Drivers/STM32G4xx_HAL_Driver/Src/stm32g4xx_hal_rcc.c ****   /* Configure the source of time base considering new system clocks settings*/
 939:Drivers/STM32G4xx_HAL_Driver/Src/stm32g4xx_hal_rcc.c ****   return HAL_InitTick(uwTickPrio);
 940:Drivers/STM32G4xx_HAL_Driver/Src/stm32g4xx_hal_rcc.c **** }
 941:Drivers/STM32G4xx_HAL_Driver/Src/stm32g4xx_hal_rcc.c **** 
 942:Drivers/STM32G4xx_HAL_Driver/Src/stm32g4xx_hal_rcc.c **** /**
 943:Drivers/STM32G4xx_HAL_Driver/Src/stm32g4xx_hal_rcc.c ****   * @}
 944:Drivers/STM32G4xx_HAL_Driver/Src/stm32g4xx_hal_rcc.c ****   */
ARM GAS  C:\Users\82057\AppData\Local\Temp\ccODTTN9.s 			page 18


 945:Drivers/STM32G4xx_HAL_Driver/Src/stm32g4xx_hal_rcc.c **** 
 946:Drivers/STM32G4xx_HAL_Driver/Src/stm32g4xx_hal_rcc.c **** /** @defgroup RCC_Exported_Functions_Group2 Peripheral Control functions
 947:Drivers/STM32G4xx_HAL_Driver/Src/stm32g4xx_hal_rcc.c ****  *  @brief   RCC clocks control functions
 948:Drivers/STM32G4xx_HAL_Driver/Src/stm32g4xx_hal_rcc.c ****  *
 949:Drivers/STM32G4xx_HAL_Driver/Src/stm32g4xx_hal_rcc.c **** @verbatim
 950:Drivers/STM32G4xx_HAL_Driver/Src/stm32g4xx_hal_rcc.c ****  ===============================================================================
 951:Drivers/STM32G4xx_HAL_Driver/Src/stm32g4xx_hal_rcc.c ****                       ##### Peripheral Control functions #####
 952:Drivers/STM32G4xx_HAL_Driver/Src/stm32g4xx_hal_rcc.c ****  ===============================================================================
 953:Drivers/STM32G4xx_HAL_Driver/Src/stm32g4xx_hal_rcc.c ****     [..]
 954:Drivers/STM32G4xx_HAL_Driver/Src/stm32g4xx_hal_rcc.c ****     This subsection provides a set of functions allowing to:
 955:Drivers/STM32G4xx_HAL_Driver/Src/stm32g4xx_hal_rcc.c **** 
 956:Drivers/STM32G4xx_HAL_Driver/Src/stm32g4xx_hal_rcc.c ****     (+) Output clock to MCO pin.
 957:Drivers/STM32G4xx_HAL_Driver/Src/stm32g4xx_hal_rcc.c ****     (+) Retrieve current clock frequencies.
 958:Drivers/STM32G4xx_HAL_Driver/Src/stm32g4xx_hal_rcc.c ****     (+) Enable the Clock Security System.
 959:Drivers/STM32G4xx_HAL_Driver/Src/stm32g4xx_hal_rcc.c **** 
 960:Drivers/STM32G4xx_HAL_Driver/Src/stm32g4xx_hal_rcc.c **** @endverbatim
 961:Drivers/STM32G4xx_HAL_Driver/Src/stm32g4xx_hal_rcc.c ****   * @{
 962:Drivers/STM32G4xx_HAL_Driver/Src/stm32g4xx_hal_rcc.c ****   */
 963:Drivers/STM32G4xx_HAL_Driver/Src/stm32g4xx_hal_rcc.c **** 
 964:Drivers/STM32G4xx_HAL_Driver/Src/stm32g4xx_hal_rcc.c **** /**
 965:Drivers/STM32G4xx_HAL_Driver/Src/stm32g4xx_hal_rcc.c ****   * @brief  Select the clock source to output on MCO pin(PA8/PG10).
 966:Drivers/STM32G4xx_HAL_Driver/Src/stm32g4xx_hal_rcc.c ****   * @note   PA8/PG10 should be configured in alternate function mode.
 967:Drivers/STM32G4xx_HAL_Driver/Src/stm32g4xx_hal_rcc.c ****   * @note   The default configuration of the GPIOG pin 10 (PG10) is set to reset mode (NRST pin)
 968:Drivers/STM32G4xx_HAL_Driver/Src/stm32g4xx_hal_rcc.c ****   *         and user shall set the NRST_MODE Bit in the FLASH OPTR register to be able to use it 
 969:Drivers/STM32G4xx_HAL_Driver/Src/stm32g4xx_hal_rcc.c ****   *         as an MCO pin.
 970:Drivers/STM32G4xx_HAL_Driver/Src/stm32g4xx_hal_rcc.c ****   *         The @ref HAL_FLASHEx_OBProgram() API can be used to configure the NRST_MODE Bit value.
 971:Drivers/STM32G4xx_HAL_Driver/Src/stm32g4xx_hal_rcc.c ****   * @param  RCC_MCOx  specifies the output direction for the clock source.
 972:Drivers/STM32G4xx_HAL_Driver/Src/stm32g4xx_hal_rcc.c ****   *          For STM32G4xx family this parameter can have only one value:
 973:Drivers/STM32G4xx_HAL_Driver/Src/stm32g4xx_hal_rcc.c ****   *            @arg @ref RCC_MCO_PA8  Clock source to output on MCO1 pin(PA8).
 974:Drivers/STM32G4xx_HAL_Driver/Src/stm32g4xx_hal_rcc.c ****   *            @arg @ref RCC_MCO_PG10  Clock source to output on MCO1 pin(PG10).
 975:Drivers/STM32G4xx_HAL_Driver/Src/stm32g4xx_hal_rcc.c ****   * @param  RCC_MCOSource  specifies the clock source to output.
 976:Drivers/STM32G4xx_HAL_Driver/Src/stm32g4xx_hal_rcc.c ****   *          This parameter can be one of the following values:
 977:Drivers/STM32G4xx_HAL_Driver/Src/stm32g4xx_hal_rcc.c ****   *            @arg @ref RCC_MCO1SOURCE_NOCLOCK  MCO output disabled, no clock on MCO
 978:Drivers/STM32G4xx_HAL_Driver/Src/stm32g4xx_hal_rcc.c ****   *            @arg @ref RCC_MCO1SOURCE_SYSCLK  system  clock selected as MCO source
 979:Drivers/STM32G4xx_HAL_Driver/Src/stm32g4xx_hal_rcc.c ****   *            @arg @ref RCC_MCO1SOURCE_HSI  HSI clock selected as MCO source
 980:Drivers/STM32G4xx_HAL_Driver/Src/stm32g4xx_hal_rcc.c ****   *            @arg @ref RCC_MCO1SOURCE_HSE  HSE clock selected as MCO source
 981:Drivers/STM32G4xx_HAL_Driver/Src/stm32g4xx_hal_rcc.c ****   *            @arg @ref RCC_MCO1SOURCE_PLLCLK  main PLL clock selected as MCO source
 982:Drivers/STM32G4xx_HAL_Driver/Src/stm32g4xx_hal_rcc.c ****   *            @arg @ref RCC_MCO1SOURCE_LSI  LSI clock selected as MCO source
 983:Drivers/STM32G4xx_HAL_Driver/Src/stm32g4xx_hal_rcc.c ****   *            @arg @ref RCC_MCO1SOURCE_LSE  LSE clock selected as MCO source
 984:Drivers/STM32G4xx_HAL_Driver/Src/stm32g4xx_hal_rcc.c ****   *            @arg @ref RCC_MCO1SOURCE_HSI48  HSI48 clock selected as MCO source for devices with 
 985:Drivers/STM32G4xx_HAL_Driver/Src/stm32g4xx_hal_rcc.c ****   * @param  RCC_MCODiv  specifies the MCO prescaler.
 986:Drivers/STM32G4xx_HAL_Driver/Src/stm32g4xx_hal_rcc.c ****   *          This parameter can be one of the following values:
 987:Drivers/STM32G4xx_HAL_Driver/Src/stm32g4xx_hal_rcc.c ****   *            @arg @ref RCC_MCODIV_1  no division applied to MCO clock
 988:Drivers/STM32G4xx_HAL_Driver/Src/stm32g4xx_hal_rcc.c ****   *            @arg @ref RCC_MCODIV_2  division by 2 applied to MCO clock
 989:Drivers/STM32G4xx_HAL_Driver/Src/stm32g4xx_hal_rcc.c ****   *            @arg @ref RCC_MCODIV_4  division by 4 applied to MCO clock
 990:Drivers/STM32G4xx_HAL_Driver/Src/stm32g4xx_hal_rcc.c ****   *            @arg @ref RCC_MCODIV_8  division by 8 applied to MCO clock
 991:Drivers/STM32G4xx_HAL_Driver/Src/stm32g4xx_hal_rcc.c ****   *            @arg @ref RCC_MCODIV_16  division by 16 applied to MCO clock
 992:Drivers/STM32G4xx_HAL_Driver/Src/stm32g4xx_hal_rcc.c ****   * @retval None
 993:Drivers/STM32G4xx_HAL_Driver/Src/stm32g4xx_hal_rcc.c ****   */
 994:Drivers/STM32G4xx_HAL_Driver/Src/stm32g4xx_hal_rcc.c **** void HAL_RCC_MCOConfig(uint32_t RCC_MCOx, uint32_t RCC_MCOSource, uint32_t RCC_MCODiv)
 995:Drivers/STM32G4xx_HAL_Driver/Src/stm32g4xx_hal_rcc.c **** {
 996:Drivers/STM32G4xx_HAL_Driver/Src/stm32g4xx_hal_rcc.c ****   GPIO_InitTypeDef gpio_initstruct;
 997:Drivers/STM32G4xx_HAL_Driver/Src/stm32g4xx_hal_rcc.c ****   uint32_t mcoindex;
 998:Drivers/STM32G4xx_HAL_Driver/Src/stm32g4xx_hal_rcc.c ****   uint32_t mco_gpio_index;
 999:Drivers/STM32G4xx_HAL_Driver/Src/stm32g4xx_hal_rcc.c ****   GPIO_TypeDef * mco_gpio_port;
1000:Drivers/STM32G4xx_HAL_Driver/Src/stm32g4xx_hal_rcc.c **** 
1001:Drivers/STM32G4xx_HAL_Driver/Src/stm32g4xx_hal_rcc.c ****   /* Check the parameters */
ARM GAS  C:\Users\82057\AppData\Local\Temp\ccODTTN9.s 			page 19


1002:Drivers/STM32G4xx_HAL_Driver/Src/stm32g4xx_hal_rcc.c ****   assert_param(IS_RCC_MCO(RCC_MCOx));
1003:Drivers/STM32G4xx_HAL_Driver/Src/stm32g4xx_hal_rcc.c **** 
1004:Drivers/STM32G4xx_HAL_Driver/Src/stm32g4xx_hal_rcc.c ****   /* Common GPIO init parameters */
1005:Drivers/STM32G4xx_HAL_Driver/Src/stm32g4xx_hal_rcc.c ****   gpio_initstruct.Mode      = GPIO_MODE_AF_PP;
1006:Drivers/STM32G4xx_HAL_Driver/Src/stm32g4xx_hal_rcc.c ****   gpio_initstruct.Speed     = GPIO_SPEED_FREQ_VERY_HIGH;
1007:Drivers/STM32G4xx_HAL_Driver/Src/stm32g4xx_hal_rcc.c ****   gpio_initstruct.Pull      = GPIO_NOPULL;
1008:Drivers/STM32G4xx_HAL_Driver/Src/stm32g4xx_hal_rcc.c **** 
1009:Drivers/STM32G4xx_HAL_Driver/Src/stm32g4xx_hal_rcc.c ****   /* Get MCOx selection */
1010:Drivers/STM32G4xx_HAL_Driver/Src/stm32g4xx_hal_rcc.c ****   mcoindex = RCC_MCOx & RCC_MCO_INDEX_MASK;
1011:Drivers/STM32G4xx_HAL_Driver/Src/stm32g4xx_hal_rcc.c **** 
1012:Drivers/STM32G4xx_HAL_Driver/Src/stm32g4xx_hal_rcc.c ****   /* Get MCOx GPIO Port */
1013:Drivers/STM32G4xx_HAL_Driver/Src/stm32g4xx_hal_rcc.c ****   mco_gpio_port = (GPIO_TypeDef *) RCC_GET_MCO_GPIO_PORT(RCC_MCOx);
1014:Drivers/STM32G4xx_HAL_Driver/Src/stm32g4xx_hal_rcc.c **** 
1015:Drivers/STM32G4xx_HAL_Driver/Src/stm32g4xx_hal_rcc.c ****   /* MCOx Clock Enable */
1016:Drivers/STM32G4xx_HAL_Driver/Src/stm32g4xx_hal_rcc.c ****   mco_gpio_index = RCC_GET_MCO_GPIO_INDEX(RCC_MCOx);
1017:Drivers/STM32G4xx_HAL_Driver/Src/stm32g4xx_hal_rcc.c ****   SET_BIT(RCC->AHB2ENR, (1UL << mco_gpio_index ));
1018:Drivers/STM32G4xx_HAL_Driver/Src/stm32g4xx_hal_rcc.c **** 
1019:Drivers/STM32G4xx_HAL_Driver/Src/stm32g4xx_hal_rcc.c ****   /* Configure the MCOx pin in alternate function mode */
1020:Drivers/STM32G4xx_HAL_Driver/Src/stm32g4xx_hal_rcc.c ****   gpio_initstruct.Pin = RCC_GET_MCO_GPIO_PIN(RCC_MCOx);
1021:Drivers/STM32G4xx_HAL_Driver/Src/stm32g4xx_hal_rcc.c ****   gpio_initstruct.Alternate = RCC_GET_MCO_GPIO_AF(RCC_MCOx);
1022:Drivers/STM32G4xx_HAL_Driver/Src/stm32g4xx_hal_rcc.c ****   HAL_GPIO_Init(mco_gpio_port, &gpio_initstruct);
1023:Drivers/STM32G4xx_HAL_Driver/Src/stm32g4xx_hal_rcc.c **** 
1024:Drivers/STM32G4xx_HAL_Driver/Src/stm32g4xx_hal_rcc.c ****    if (mcoindex == RCC_MCO1_INDEX)
1025:Drivers/STM32G4xx_HAL_Driver/Src/stm32g4xx_hal_rcc.c ****   {
1026:Drivers/STM32G4xx_HAL_Driver/Src/stm32g4xx_hal_rcc.c ****     assert_param(IS_RCC_MCODIV(RCC_MCODiv));
1027:Drivers/STM32G4xx_HAL_Driver/Src/stm32g4xx_hal_rcc.c ****     assert_param(IS_RCC_MCO1SOURCE(RCC_MCOSource));
1028:Drivers/STM32G4xx_HAL_Driver/Src/stm32g4xx_hal_rcc.c ****     /* Mask MCOSEL[] and MCOPRE[] bits then set MCO clock source and prescaler */
1029:Drivers/STM32G4xx_HAL_Driver/Src/stm32g4xx_hal_rcc.c ****     MODIFY_REG(RCC->CFGR, (RCC_CFGR_MCOSEL | RCC_CFGR_MCOPRE), (RCC_MCOSource | RCC_MCODiv));
1030:Drivers/STM32G4xx_HAL_Driver/Src/stm32g4xx_hal_rcc.c ****   }
1031:Drivers/STM32G4xx_HAL_Driver/Src/stm32g4xx_hal_rcc.c **** }
1032:Drivers/STM32G4xx_HAL_Driver/Src/stm32g4xx_hal_rcc.c **** 
1033:Drivers/STM32G4xx_HAL_Driver/Src/stm32g4xx_hal_rcc.c **** /**
1034:Drivers/STM32G4xx_HAL_Driver/Src/stm32g4xx_hal_rcc.c ****   * @brief  Return the SYSCLK frequency.
1035:Drivers/STM32G4xx_HAL_Driver/Src/stm32g4xx_hal_rcc.c ****   *
1036:Drivers/STM32G4xx_HAL_Driver/Src/stm32g4xx_hal_rcc.c ****   * @note   The system frequency computed by this function is not the real
1037:Drivers/STM32G4xx_HAL_Driver/Src/stm32g4xx_hal_rcc.c ****   *         frequency in the chip. It is calculated based on the predefined
1038:Drivers/STM32G4xx_HAL_Driver/Src/stm32g4xx_hal_rcc.c ****   *         constant and the selected clock source:
1039:Drivers/STM32G4xx_HAL_Driver/Src/stm32g4xx_hal_rcc.c ****   * @note     If SYSCLK source is HSI, function returns values based on HSI_VALUE(*)
1040:Drivers/STM32G4xx_HAL_Driver/Src/stm32g4xx_hal_rcc.c ****   * @note     If SYSCLK source is HSE, function returns values based on HSE_VALUE(**)
1041:Drivers/STM32G4xx_HAL_Driver/Src/stm32g4xx_hal_rcc.c ****   * @note     If SYSCLK source is PLL, function returns values based on HSE_VALUE(**),
1042:Drivers/STM32G4xx_HAL_Driver/Src/stm32g4xx_hal_rcc.c ****   *           HSI_VALUE(*) Value multiplied/divided by the PLL factors.
1043:Drivers/STM32G4xx_HAL_Driver/Src/stm32g4xx_hal_rcc.c ****   * @note     (*) HSI_VALUE is a constant defined in stm32g4xx_hal_conf.h file (default value
1044:Drivers/STM32G4xx_HAL_Driver/Src/stm32g4xx_hal_rcc.c ****   *               16 MHz) but the real value may vary depending on the variations
1045:Drivers/STM32G4xx_HAL_Driver/Src/stm32g4xx_hal_rcc.c ****   *               in voltage and temperature.
1046:Drivers/STM32G4xx_HAL_Driver/Src/stm32g4xx_hal_rcc.c ****   * @note     (**) HSE_VALUE is a constant defined in stm32g4xx_hal_conf.h file (default value
1047:Drivers/STM32G4xx_HAL_Driver/Src/stm32g4xx_hal_rcc.c ****   *                8 MHz), user has to ensure that HSE_VALUE is same as the real
1048:Drivers/STM32G4xx_HAL_Driver/Src/stm32g4xx_hal_rcc.c ****   *                frequency of the crystal used. Otherwise, this function may
1049:Drivers/STM32G4xx_HAL_Driver/Src/stm32g4xx_hal_rcc.c ****   *                have wrong result.
1050:Drivers/STM32G4xx_HAL_Driver/Src/stm32g4xx_hal_rcc.c ****   *
1051:Drivers/STM32G4xx_HAL_Driver/Src/stm32g4xx_hal_rcc.c ****   * @note   The result of this function could be not correct when using fractional
1052:Drivers/STM32G4xx_HAL_Driver/Src/stm32g4xx_hal_rcc.c ****   *         value for HSE crystal.
1053:Drivers/STM32G4xx_HAL_Driver/Src/stm32g4xx_hal_rcc.c ****   *
1054:Drivers/STM32G4xx_HAL_Driver/Src/stm32g4xx_hal_rcc.c ****   * @note   This function can be used by the user application to compute the
1055:Drivers/STM32G4xx_HAL_Driver/Src/stm32g4xx_hal_rcc.c ****   *         baudrate for the communication peripherals or configure other parameters.
1056:Drivers/STM32G4xx_HAL_Driver/Src/stm32g4xx_hal_rcc.c ****   *
1057:Drivers/STM32G4xx_HAL_Driver/Src/stm32g4xx_hal_rcc.c ****   * @note   Each time SYSCLK changes, this function must be called to update the
1058:Drivers/STM32G4xx_HAL_Driver/Src/stm32g4xx_hal_rcc.c ****   *         right SYSCLK value. Otherwise, any configuration based on this function will be incorre
ARM GAS  C:\Users\82057\AppData\Local\Temp\ccODTTN9.s 			page 20


1059:Drivers/STM32G4xx_HAL_Driver/Src/stm32g4xx_hal_rcc.c ****   *
1060:Drivers/STM32G4xx_HAL_Driver/Src/stm32g4xx_hal_rcc.c ****   *
1061:Drivers/STM32G4xx_HAL_Driver/Src/stm32g4xx_hal_rcc.c ****   * @retval SYSCLK frequency
1062:Drivers/STM32G4xx_HAL_Driver/Src/stm32g4xx_hal_rcc.c ****   */
1063:Drivers/STM32G4xx_HAL_Driver/Src/stm32g4xx_hal_rcc.c **** uint32_t HAL_RCC_GetSysClockFreq(void)
1064:Drivers/STM32G4xx_HAL_Driver/Src/stm32g4xx_hal_rcc.c **** {
1065:Drivers/STM32G4xx_HAL_Driver/Src/stm32g4xx_hal_rcc.c ****   uint32_t pllvco, pllsource, pllr, pllm;
1066:Drivers/STM32G4xx_HAL_Driver/Src/stm32g4xx_hal_rcc.c ****   uint32_t sysclockfreq;
1067:Drivers/STM32G4xx_HAL_Driver/Src/stm32g4xx_hal_rcc.c **** 
1068:Drivers/STM32G4xx_HAL_Driver/Src/stm32g4xx_hal_rcc.c ****   if (__HAL_RCC_GET_SYSCLK_SOURCE() == RCC_CFGR_SWS_HSI)
1069:Drivers/STM32G4xx_HAL_Driver/Src/stm32g4xx_hal_rcc.c ****   {
1070:Drivers/STM32G4xx_HAL_Driver/Src/stm32g4xx_hal_rcc.c ****     /* HSI used as system clock source */
1071:Drivers/STM32G4xx_HAL_Driver/Src/stm32g4xx_hal_rcc.c ****     sysclockfreq = HSI_VALUE;
1072:Drivers/STM32G4xx_HAL_Driver/Src/stm32g4xx_hal_rcc.c ****   }
1073:Drivers/STM32G4xx_HAL_Driver/Src/stm32g4xx_hal_rcc.c ****   else if (__HAL_RCC_GET_SYSCLK_SOURCE() == RCC_CFGR_SWS_HSE)
1074:Drivers/STM32G4xx_HAL_Driver/Src/stm32g4xx_hal_rcc.c ****   {
1075:Drivers/STM32G4xx_HAL_Driver/Src/stm32g4xx_hal_rcc.c ****     /* HSE used as system clock source */
1076:Drivers/STM32G4xx_HAL_Driver/Src/stm32g4xx_hal_rcc.c ****     sysclockfreq = HSE_VALUE;
1077:Drivers/STM32G4xx_HAL_Driver/Src/stm32g4xx_hal_rcc.c ****   }
1078:Drivers/STM32G4xx_HAL_Driver/Src/stm32g4xx_hal_rcc.c ****   else if (__HAL_RCC_GET_SYSCLK_SOURCE() == RCC_CFGR_SWS_PLL)
1079:Drivers/STM32G4xx_HAL_Driver/Src/stm32g4xx_hal_rcc.c ****   {
1080:Drivers/STM32G4xx_HAL_Driver/Src/stm32g4xx_hal_rcc.c ****     /* PLL used as system clock  source */
1081:Drivers/STM32G4xx_HAL_Driver/Src/stm32g4xx_hal_rcc.c **** 
1082:Drivers/STM32G4xx_HAL_Driver/Src/stm32g4xx_hal_rcc.c ****     /* PLL_VCO = ((HSE_VALUE or HSI_VALUE)/ PLLM) * PLLN
1083:Drivers/STM32G4xx_HAL_Driver/Src/stm32g4xx_hal_rcc.c ****     SYSCLK = PLL_VCO / PLLR
1084:Drivers/STM32G4xx_HAL_Driver/Src/stm32g4xx_hal_rcc.c ****     */
1085:Drivers/STM32G4xx_HAL_Driver/Src/stm32g4xx_hal_rcc.c ****     pllsource = READ_BIT(RCC->PLLCFGR, RCC_PLLCFGR_PLLSRC);
1086:Drivers/STM32G4xx_HAL_Driver/Src/stm32g4xx_hal_rcc.c ****     pllm = (READ_BIT(RCC->PLLCFGR, RCC_PLLCFGR_PLLM) >> RCC_PLLCFGR_PLLM_Pos) + 1U ;
1087:Drivers/STM32G4xx_HAL_Driver/Src/stm32g4xx_hal_rcc.c **** 
1088:Drivers/STM32G4xx_HAL_Driver/Src/stm32g4xx_hal_rcc.c ****     switch (pllsource)
1089:Drivers/STM32G4xx_HAL_Driver/Src/stm32g4xx_hal_rcc.c ****     {
1090:Drivers/STM32G4xx_HAL_Driver/Src/stm32g4xx_hal_rcc.c ****     case RCC_PLLSOURCE_HSE:  /* HSE used as PLL clock source */
1091:Drivers/STM32G4xx_HAL_Driver/Src/stm32g4xx_hal_rcc.c ****       pllvco = (HSE_VALUE / pllm) * (READ_BIT(RCC->PLLCFGR, RCC_PLLCFGR_PLLN) >> RCC_PLLCFGR_PLLN_P
1092:Drivers/STM32G4xx_HAL_Driver/Src/stm32g4xx_hal_rcc.c ****       break;
1093:Drivers/STM32G4xx_HAL_Driver/Src/stm32g4xx_hal_rcc.c **** 
1094:Drivers/STM32G4xx_HAL_Driver/Src/stm32g4xx_hal_rcc.c ****     case RCC_PLLSOURCE_HSI:  /* HSI used as PLL clock source */
1095:Drivers/STM32G4xx_HAL_Driver/Src/stm32g4xx_hal_rcc.c ****     default:
1096:Drivers/STM32G4xx_HAL_Driver/Src/stm32g4xx_hal_rcc.c ****       pllvco = (HSI_VALUE / pllm) * (READ_BIT(RCC->PLLCFGR, RCC_PLLCFGR_PLLN) >> RCC_PLLCFGR_PLLN_P
1097:Drivers/STM32G4xx_HAL_Driver/Src/stm32g4xx_hal_rcc.c ****       break;
1098:Drivers/STM32G4xx_HAL_Driver/Src/stm32g4xx_hal_rcc.c ****     }
1099:Drivers/STM32G4xx_HAL_Driver/Src/stm32g4xx_hal_rcc.c ****     pllr = ((READ_BIT(RCC->PLLCFGR, RCC_PLLCFGR_PLLR) >> RCC_PLLCFGR_PLLR_Pos) + 1U ) * 2U;
1100:Drivers/STM32G4xx_HAL_Driver/Src/stm32g4xx_hal_rcc.c ****     sysclockfreq = pllvco/pllr;
1101:Drivers/STM32G4xx_HAL_Driver/Src/stm32g4xx_hal_rcc.c ****   }
1102:Drivers/STM32G4xx_HAL_Driver/Src/stm32g4xx_hal_rcc.c ****   else
1103:Drivers/STM32G4xx_HAL_Driver/Src/stm32g4xx_hal_rcc.c ****   {
1104:Drivers/STM32G4xx_HAL_Driver/Src/stm32g4xx_hal_rcc.c ****     sysclockfreq = 0U;
1105:Drivers/STM32G4xx_HAL_Driver/Src/stm32g4xx_hal_rcc.c ****   }
1106:Drivers/STM32G4xx_HAL_Driver/Src/stm32g4xx_hal_rcc.c **** 
1107:Drivers/STM32G4xx_HAL_Driver/Src/stm32g4xx_hal_rcc.c ****   return sysclockfreq;
1108:Drivers/STM32G4xx_HAL_Driver/Src/stm32g4xx_hal_rcc.c **** }
1109:Drivers/STM32G4xx_HAL_Driver/Src/stm32g4xx_hal_rcc.c **** 
1110:Drivers/STM32G4xx_HAL_Driver/Src/stm32g4xx_hal_rcc.c **** /**
1111:Drivers/STM32G4xx_HAL_Driver/Src/stm32g4xx_hal_rcc.c ****   * @brief  Return the HCLK frequency.
1112:Drivers/STM32G4xx_HAL_Driver/Src/stm32g4xx_hal_rcc.c ****   * @note   Each time HCLK changes, this function must be called to update the
1113:Drivers/STM32G4xx_HAL_Driver/Src/stm32g4xx_hal_rcc.c ****   *         right HCLK value. Otherwise, any configuration based on this function will be incorrect
1114:Drivers/STM32G4xx_HAL_Driver/Src/stm32g4xx_hal_rcc.c ****   *
1115:Drivers/STM32G4xx_HAL_Driver/Src/stm32g4xx_hal_rcc.c ****   * @note   The SystemCoreClock CMSIS variable is used to store System Clock Frequency.
ARM GAS  C:\Users\82057\AppData\Local\Temp\ccODTTN9.s 			page 21


1116:Drivers/STM32G4xx_HAL_Driver/Src/stm32g4xx_hal_rcc.c ****   * @retval HCLK frequency in Hz
1117:Drivers/STM32G4xx_HAL_Driver/Src/stm32g4xx_hal_rcc.c ****   */
1118:Drivers/STM32G4xx_HAL_Driver/Src/stm32g4xx_hal_rcc.c **** uint32_t HAL_RCC_GetHCLKFreq(void)
1119:Drivers/STM32G4xx_HAL_Driver/Src/stm32g4xx_hal_rcc.c **** {
1120:Drivers/STM32G4xx_HAL_Driver/Src/stm32g4xx_hal_rcc.c ****   return SystemCoreClock;
1121:Drivers/STM32G4xx_HAL_Driver/Src/stm32g4xx_hal_rcc.c **** }
1122:Drivers/STM32G4xx_HAL_Driver/Src/stm32g4xx_hal_rcc.c **** 
1123:Drivers/STM32G4xx_HAL_Driver/Src/stm32g4xx_hal_rcc.c **** /**
1124:Drivers/STM32G4xx_HAL_Driver/Src/stm32g4xx_hal_rcc.c ****   * @brief  Return the PCLK1 frequency.
1125:Drivers/STM32G4xx_HAL_Driver/Src/stm32g4xx_hal_rcc.c ****   * @note   Each time PCLK1 changes, this function must be called to update the
1126:Drivers/STM32G4xx_HAL_Driver/Src/stm32g4xx_hal_rcc.c ****   *         right PCLK1 value. Otherwise, any configuration based on this function will be incorrec
1127:Drivers/STM32G4xx_HAL_Driver/Src/stm32g4xx_hal_rcc.c ****   * @retval PCLK1 frequency in Hz
1128:Drivers/STM32G4xx_HAL_Driver/Src/stm32g4xx_hal_rcc.c ****   */
1129:Drivers/STM32G4xx_HAL_Driver/Src/stm32g4xx_hal_rcc.c **** uint32_t HAL_RCC_GetPCLK1Freq(void)
1130:Drivers/STM32G4xx_HAL_Driver/Src/stm32g4xx_hal_rcc.c **** {
1131:Drivers/STM32G4xx_HAL_Driver/Src/stm32g4xx_hal_rcc.c ****   /* Get HCLK source and Compute PCLK1 frequency ---------------------------*/
1132:Drivers/STM32G4xx_HAL_Driver/Src/stm32g4xx_hal_rcc.c ****   return (HAL_RCC_GetHCLKFreq() >> (APBPrescTable[READ_BIT(RCC->CFGR, RCC_CFGR_PPRE1) >> RCC_CFGR_P
1133:Drivers/STM32G4xx_HAL_Driver/Src/stm32g4xx_hal_rcc.c **** }
1134:Drivers/STM32G4xx_HAL_Driver/Src/stm32g4xx_hal_rcc.c **** 
1135:Drivers/STM32G4xx_HAL_Driver/Src/stm32g4xx_hal_rcc.c **** /**
1136:Drivers/STM32G4xx_HAL_Driver/Src/stm32g4xx_hal_rcc.c ****   * @brief  Return the PCLK2 frequency.
1137:Drivers/STM32G4xx_HAL_Driver/Src/stm32g4xx_hal_rcc.c ****   * @note   Each time PCLK2 changes, this function must be called to update the
1138:Drivers/STM32G4xx_HAL_Driver/Src/stm32g4xx_hal_rcc.c ****   *         right PCLK2 value. Otherwise, any configuration based on this function will be incorrec
1139:Drivers/STM32G4xx_HAL_Driver/Src/stm32g4xx_hal_rcc.c ****   * @retval PCLK2 frequency in Hz
1140:Drivers/STM32G4xx_HAL_Driver/Src/stm32g4xx_hal_rcc.c ****   */
1141:Drivers/STM32G4xx_HAL_Driver/Src/stm32g4xx_hal_rcc.c **** uint32_t HAL_RCC_GetPCLK2Freq(void)
1142:Drivers/STM32G4xx_HAL_Driver/Src/stm32g4xx_hal_rcc.c **** {
1143:Drivers/STM32G4xx_HAL_Driver/Src/stm32g4xx_hal_rcc.c ****   /* Get HCLK source and Compute PCLK2 frequency ---------------------------*/
1144:Drivers/STM32G4xx_HAL_Driver/Src/stm32g4xx_hal_rcc.c ****   return (HAL_RCC_GetHCLKFreq()>> (APBPrescTable[READ_BIT(RCC->CFGR, RCC_CFGR_PPRE2) >> RCC_CFGR_PP
1145:Drivers/STM32G4xx_HAL_Driver/Src/stm32g4xx_hal_rcc.c **** }
1146:Drivers/STM32G4xx_HAL_Driver/Src/stm32g4xx_hal_rcc.c **** 
1147:Drivers/STM32G4xx_HAL_Driver/Src/stm32g4xx_hal_rcc.c **** /**
1148:Drivers/STM32G4xx_HAL_Driver/Src/stm32g4xx_hal_rcc.c ****   * @brief  Configure the RCC_OscInitStruct according to the internal
1149:Drivers/STM32G4xx_HAL_Driver/Src/stm32g4xx_hal_rcc.c ****   *         RCC configuration registers.
1150:Drivers/STM32G4xx_HAL_Driver/Src/stm32g4xx_hal_rcc.c ****   * @param  RCC_OscInitStruct  pointer to an RCC_OscInitTypeDef structure that
1151:Drivers/STM32G4xx_HAL_Driver/Src/stm32g4xx_hal_rcc.c ****   *         will be configured.
1152:Drivers/STM32G4xx_HAL_Driver/Src/stm32g4xx_hal_rcc.c ****   * @retval None
1153:Drivers/STM32G4xx_HAL_Driver/Src/stm32g4xx_hal_rcc.c ****   */
1154:Drivers/STM32G4xx_HAL_Driver/Src/stm32g4xx_hal_rcc.c **** void HAL_RCC_GetOscConfig(RCC_OscInitTypeDef  *RCC_OscInitStruct)
1155:Drivers/STM32G4xx_HAL_Driver/Src/stm32g4xx_hal_rcc.c **** {
1156:Drivers/STM32G4xx_HAL_Driver/Src/stm32g4xx_hal_rcc.c ****   /* Check the parameters */
1157:Drivers/STM32G4xx_HAL_Driver/Src/stm32g4xx_hal_rcc.c ****   assert_param(RCC_OscInitStruct != (void *)NULL);
1158:Drivers/STM32G4xx_HAL_Driver/Src/stm32g4xx_hal_rcc.c **** 
1159:Drivers/STM32G4xx_HAL_Driver/Src/stm32g4xx_hal_rcc.c ****   /* Set all possible values for the Oscillator type parameter ---------------*/
1160:Drivers/STM32G4xx_HAL_Driver/Src/stm32g4xx_hal_rcc.c ****   RCC_OscInitStruct->OscillatorType = RCC_OSCILLATORTYPE_HSE | RCC_OSCILLATORTYPE_HSI | \
1161:Drivers/STM32G4xx_HAL_Driver/Src/stm32g4xx_hal_rcc.c ****                                       RCC_OSCILLATORTYPE_LSE | RCC_OSCILLATORTYPE_LSI | RCC_OSCILLA
1162:Drivers/STM32G4xx_HAL_Driver/Src/stm32g4xx_hal_rcc.c **** 
1163:Drivers/STM32G4xx_HAL_Driver/Src/stm32g4xx_hal_rcc.c ****   /* Get the HSE configuration -----------------------------------------------*/
1164:Drivers/STM32G4xx_HAL_Driver/Src/stm32g4xx_hal_rcc.c ****   if(READ_BIT(RCC->CR, RCC_CR_HSEBYP) == RCC_CR_HSEBYP)
1165:Drivers/STM32G4xx_HAL_Driver/Src/stm32g4xx_hal_rcc.c ****   {
1166:Drivers/STM32G4xx_HAL_Driver/Src/stm32g4xx_hal_rcc.c ****     RCC_OscInitStruct->HSEState = RCC_HSE_BYPASS;
1167:Drivers/STM32G4xx_HAL_Driver/Src/stm32g4xx_hal_rcc.c ****   }
1168:Drivers/STM32G4xx_HAL_Driver/Src/stm32g4xx_hal_rcc.c ****   else if(READ_BIT(RCC->CR, RCC_CR_HSEON) == RCC_CR_HSEON)
1169:Drivers/STM32G4xx_HAL_Driver/Src/stm32g4xx_hal_rcc.c ****   {
1170:Drivers/STM32G4xx_HAL_Driver/Src/stm32g4xx_hal_rcc.c ****     RCC_OscInitStruct->HSEState = RCC_HSE_ON;
1171:Drivers/STM32G4xx_HAL_Driver/Src/stm32g4xx_hal_rcc.c ****   }
1172:Drivers/STM32G4xx_HAL_Driver/Src/stm32g4xx_hal_rcc.c ****   else
ARM GAS  C:\Users\82057\AppData\Local\Temp\ccODTTN9.s 			page 22


1173:Drivers/STM32G4xx_HAL_Driver/Src/stm32g4xx_hal_rcc.c ****   {
1174:Drivers/STM32G4xx_HAL_Driver/Src/stm32g4xx_hal_rcc.c ****     RCC_OscInitStruct->HSEState = RCC_HSE_OFF;
1175:Drivers/STM32G4xx_HAL_Driver/Src/stm32g4xx_hal_rcc.c ****   }
1176:Drivers/STM32G4xx_HAL_Driver/Src/stm32g4xx_hal_rcc.c **** 
1177:Drivers/STM32G4xx_HAL_Driver/Src/stm32g4xx_hal_rcc.c ****   /* Get the HSI configuration -----------------------------------------------*/
1178:Drivers/STM32G4xx_HAL_Driver/Src/stm32g4xx_hal_rcc.c ****   if(READ_BIT(RCC->CR, RCC_CR_HSION) == RCC_CR_HSION)
1179:Drivers/STM32G4xx_HAL_Driver/Src/stm32g4xx_hal_rcc.c ****   {
1180:Drivers/STM32G4xx_HAL_Driver/Src/stm32g4xx_hal_rcc.c ****     RCC_OscInitStruct->HSIState = RCC_HSI_ON;
1181:Drivers/STM32G4xx_HAL_Driver/Src/stm32g4xx_hal_rcc.c ****   }
1182:Drivers/STM32G4xx_HAL_Driver/Src/stm32g4xx_hal_rcc.c ****   else
1183:Drivers/STM32G4xx_HAL_Driver/Src/stm32g4xx_hal_rcc.c ****   {
1184:Drivers/STM32G4xx_HAL_Driver/Src/stm32g4xx_hal_rcc.c ****     RCC_OscInitStruct->HSIState = RCC_HSI_OFF;
1185:Drivers/STM32G4xx_HAL_Driver/Src/stm32g4xx_hal_rcc.c ****   }
1186:Drivers/STM32G4xx_HAL_Driver/Src/stm32g4xx_hal_rcc.c **** 
1187:Drivers/STM32G4xx_HAL_Driver/Src/stm32g4xx_hal_rcc.c ****   RCC_OscInitStruct->HSICalibrationValue = READ_BIT(RCC->ICSCR, RCC_ICSCR_HSITRIM) >> RCC_ICSCR_HSI
1188:Drivers/STM32G4xx_HAL_Driver/Src/stm32g4xx_hal_rcc.c **** 
1189:Drivers/STM32G4xx_HAL_Driver/Src/stm32g4xx_hal_rcc.c ****   /* Get the LSE configuration -----------------------------------------------*/
1190:Drivers/STM32G4xx_HAL_Driver/Src/stm32g4xx_hal_rcc.c ****   if(READ_BIT(RCC->BDCR, RCC_BDCR_LSEBYP) == RCC_BDCR_LSEBYP)
1191:Drivers/STM32G4xx_HAL_Driver/Src/stm32g4xx_hal_rcc.c ****   {
1192:Drivers/STM32G4xx_HAL_Driver/Src/stm32g4xx_hal_rcc.c ****     RCC_OscInitStruct->LSEState = RCC_LSE_BYPASS;
1193:Drivers/STM32G4xx_HAL_Driver/Src/stm32g4xx_hal_rcc.c ****   }
1194:Drivers/STM32G4xx_HAL_Driver/Src/stm32g4xx_hal_rcc.c ****   else if(READ_BIT(RCC->BDCR, RCC_BDCR_LSEON) == RCC_BDCR_LSEON)
1195:Drivers/STM32G4xx_HAL_Driver/Src/stm32g4xx_hal_rcc.c ****   {
1196:Drivers/STM32G4xx_HAL_Driver/Src/stm32g4xx_hal_rcc.c ****     RCC_OscInitStruct->LSEState = RCC_LSE_ON;
1197:Drivers/STM32G4xx_HAL_Driver/Src/stm32g4xx_hal_rcc.c ****   }
1198:Drivers/STM32G4xx_HAL_Driver/Src/stm32g4xx_hal_rcc.c ****   else
1199:Drivers/STM32G4xx_HAL_Driver/Src/stm32g4xx_hal_rcc.c ****   {
1200:Drivers/STM32G4xx_HAL_Driver/Src/stm32g4xx_hal_rcc.c ****     RCC_OscInitStruct->LSEState = RCC_LSE_OFF;
1201:Drivers/STM32G4xx_HAL_Driver/Src/stm32g4xx_hal_rcc.c ****   }
1202:Drivers/STM32G4xx_HAL_Driver/Src/stm32g4xx_hal_rcc.c **** 
1203:Drivers/STM32G4xx_HAL_Driver/Src/stm32g4xx_hal_rcc.c ****   /* Get the LSI configuration -----------------------------------------------*/
1204:Drivers/STM32G4xx_HAL_Driver/Src/stm32g4xx_hal_rcc.c ****   if(READ_BIT(RCC->CSR, RCC_CSR_LSION) == RCC_CSR_LSION)
1205:Drivers/STM32G4xx_HAL_Driver/Src/stm32g4xx_hal_rcc.c ****   {
1206:Drivers/STM32G4xx_HAL_Driver/Src/stm32g4xx_hal_rcc.c ****     RCC_OscInitStruct->LSIState = RCC_LSI_ON;
1207:Drivers/STM32G4xx_HAL_Driver/Src/stm32g4xx_hal_rcc.c ****   }
1208:Drivers/STM32G4xx_HAL_Driver/Src/stm32g4xx_hal_rcc.c ****   else
1209:Drivers/STM32G4xx_HAL_Driver/Src/stm32g4xx_hal_rcc.c ****   {
1210:Drivers/STM32G4xx_HAL_Driver/Src/stm32g4xx_hal_rcc.c ****     RCC_OscInitStruct->LSIState = RCC_LSI_OFF;
1211:Drivers/STM32G4xx_HAL_Driver/Src/stm32g4xx_hal_rcc.c ****   }
1212:Drivers/STM32G4xx_HAL_Driver/Src/stm32g4xx_hal_rcc.c **** 
1213:Drivers/STM32G4xx_HAL_Driver/Src/stm32g4xx_hal_rcc.c ****   /* Get the HSI48 configuration ---------------------------------------------*/
1214:Drivers/STM32G4xx_HAL_Driver/Src/stm32g4xx_hal_rcc.c ****   if(READ_BIT(RCC->CRRCR, RCC_CRRCR_HSI48ON) == RCC_CRRCR_HSI48ON)
1215:Drivers/STM32G4xx_HAL_Driver/Src/stm32g4xx_hal_rcc.c ****   {
1216:Drivers/STM32G4xx_HAL_Driver/Src/stm32g4xx_hal_rcc.c ****     RCC_OscInitStruct->HSI48State = RCC_HSI48_ON;
1217:Drivers/STM32G4xx_HAL_Driver/Src/stm32g4xx_hal_rcc.c ****   }
1218:Drivers/STM32G4xx_HAL_Driver/Src/stm32g4xx_hal_rcc.c ****   else
1219:Drivers/STM32G4xx_HAL_Driver/Src/stm32g4xx_hal_rcc.c ****   {
1220:Drivers/STM32G4xx_HAL_Driver/Src/stm32g4xx_hal_rcc.c ****     RCC_OscInitStruct->HSI48State = RCC_HSI48_OFF;
1221:Drivers/STM32G4xx_HAL_Driver/Src/stm32g4xx_hal_rcc.c ****   }
1222:Drivers/STM32G4xx_HAL_Driver/Src/stm32g4xx_hal_rcc.c **** 
1223:Drivers/STM32G4xx_HAL_Driver/Src/stm32g4xx_hal_rcc.c ****   /* Get the PLL configuration -----------------------------------------------*/
1224:Drivers/STM32G4xx_HAL_Driver/Src/stm32g4xx_hal_rcc.c ****   if(READ_BIT(RCC->CR, RCC_CR_PLLON) == RCC_CR_PLLON)
1225:Drivers/STM32G4xx_HAL_Driver/Src/stm32g4xx_hal_rcc.c ****   {
1226:Drivers/STM32G4xx_HAL_Driver/Src/stm32g4xx_hal_rcc.c ****     RCC_OscInitStruct->PLL.PLLState = RCC_PLL_ON;
1227:Drivers/STM32G4xx_HAL_Driver/Src/stm32g4xx_hal_rcc.c ****   }
1228:Drivers/STM32G4xx_HAL_Driver/Src/stm32g4xx_hal_rcc.c ****   else
1229:Drivers/STM32G4xx_HAL_Driver/Src/stm32g4xx_hal_rcc.c ****   {
ARM GAS  C:\Users\82057\AppData\Local\Temp\ccODTTN9.s 			page 23


1230:Drivers/STM32G4xx_HAL_Driver/Src/stm32g4xx_hal_rcc.c ****     RCC_OscInitStruct->PLL.PLLState = RCC_PLL_OFF;
1231:Drivers/STM32G4xx_HAL_Driver/Src/stm32g4xx_hal_rcc.c ****   }
1232:Drivers/STM32G4xx_HAL_Driver/Src/stm32g4xx_hal_rcc.c ****   RCC_OscInitStruct->PLL.PLLSource = READ_BIT(RCC->PLLCFGR, RCC_PLLCFGR_PLLSRC);
1233:Drivers/STM32G4xx_HAL_Driver/Src/stm32g4xx_hal_rcc.c ****   RCC_OscInitStruct->PLL.PLLM = (READ_BIT(RCC->PLLCFGR, RCC_PLLCFGR_PLLM) >> RCC_PLLCFGR_PLLM_Pos) 
1234:Drivers/STM32G4xx_HAL_Driver/Src/stm32g4xx_hal_rcc.c ****   RCC_OscInitStruct->PLL.PLLN = READ_BIT(RCC->PLLCFGR, RCC_PLLCFGR_PLLN) >> RCC_PLLCFGR_PLLN_Pos;
1235:Drivers/STM32G4xx_HAL_Driver/Src/stm32g4xx_hal_rcc.c ****   RCC_OscInitStruct->PLL.PLLQ = (((READ_BIT(RCC->PLLCFGR, RCC_PLLCFGR_PLLQ) >> RCC_PLLCFGR_PLLQ_Pos
1236:Drivers/STM32G4xx_HAL_Driver/Src/stm32g4xx_hal_rcc.c ****   RCC_OscInitStruct->PLL.PLLR = (((READ_BIT(RCC->PLLCFGR, RCC_PLLCFGR_PLLR) >> RCC_PLLCFGR_PLLR_Pos
1237:Drivers/STM32G4xx_HAL_Driver/Src/stm32g4xx_hal_rcc.c ****   RCC_OscInitStruct->PLL.PLLP = READ_BIT(RCC->PLLCFGR, RCC_PLLCFGR_PLLPDIV) >> RCC_PLLCFGR_PLLPDIV_
1238:Drivers/STM32G4xx_HAL_Driver/Src/stm32g4xx_hal_rcc.c **** }
1239:Drivers/STM32G4xx_HAL_Driver/Src/stm32g4xx_hal_rcc.c **** 
1240:Drivers/STM32G4xx_HAL_Driver/Src/stm32g4xx_hal_rcc.c **** /**
1241:Drivers/STM32G4xx_HAL_Driver/Src/stm32g4xx_hal_rcc.c ****   * @brief  Configure the RCC_ClkInitStruct according to the internal
1242:Drivers/STM32G4xx_HAL_Driver/Src/stm32g4xx_hal_rcc.c ****   *         RCC configuration registers.
1243:Drivers/STM32G4xx_HAL_Driver/Src/stm32g4xx_hal_rcc.c ****   * @param  RCC_ClkInitStruct  pointer to an RCC_ClkInitTypeDef structure that
1244:Drivers/STM32G4xx_HAL_Driver/Src/stm32g4xx_hal_rcc.c ****   *         will be configured.
1245:Drivers/STM32G4xx_HAL_Driver/Src/stm32g4xx_hal_rcc.c ****   * @param  pFLatency  Pointer on the Flash Latency.
1246:Drivers/STM32G4xx_HAL_Driver/Src/stm32g4xx_hal_rcc.c ****   * @retval None
1247:Drivers/STM32G4xx_HAL_Driver/Src/stm32g4xx_hal_rcc.c ****   */
1248:Drivers/STM32G4xx_HAL_Driver/Src/stm32g4xx_hal_rcc.c **** void HAL_RCC_GetClockConfig(RCC_ClkInitTypeDef  *RCC_ClkInitStruct, uint32_t *pFLatency)
1249:Drivers/STM32G4xx_HAL_Driver/Src/stm32g4xx_hal_rcc.c **** {
1250:Drivers/STM32G4xx_HAL_Driver/Src/stm32g4xx_hal_rcc.c ****   /* Check the parameters */
1251:Drivers/STM32G4xx_HAL_Driver/Src/stm32g4xx_hal_rcc.c ****   assert_param(RCC_ClkInitStruct != (void  *)NULL);
1252:Drivers/STM32G4xx_HAL_Driver/Src/stm32g4xx_hal_rcc.c ****   assert_param(pFLatency != (void *)NULL);
1253:Drivers/STM32G4xx_HAL_Driver/Src/stm32g4xx_hal_rcc.c **** 
1254:Drivers/STM32G4xx_HAL_Driver/Src/stm32g4xx_hal_rcc.c ****   /* Set all possible values for the Clock type parameter --------------------*/
1255:Drivers/STM32G4xx_HAL_Driver/Src/stm32g4xx_hal_rcc.c ****   RCC_ClkInitStruct->ClockType = RCC_CLOCKTYPE_SYSCLK | RCC_CLOCKTYPE_HCLK | RCC_CLOCKTYPE_PCLK1 | 
1256:Drivers/STM32G4xx_HAL_Driver/Src/stm32g4xx_hal_rcc.c **** 
1257:Drivers/STM32G4xx_HAL_Driver/Src/stm32g4xx_hal_rcc.c ****   /* Get the SYSCLK configuration --------------------------------------------*/
1258:Drivers/STM32G4xx_HAL_Driver/Src/stm32g4xx_hal_rcc.c ****   RCC_ClkInitStruct->SYSCLKSource = READ_BIT(RCC->CFGR, RCC_CFGR_SW);
1259:Drivers/STM32G4xx_HAL_Driver/Src/stm32g4xx_hal_rcc.c **** 
1260:Drivers/STM32G4xx_HAL_Driver/Src/stm32g4xx_hal_rcc.c ****   /* Get the HCLK configuration ----------------------------------------------*/
1261:Drivers/STM32G4xx_HAL_Driver/Src/stm32g4xx_hal_rcc.c ****   RCC_ClkInitStruct->AHBCLKDivider = READ_BIT(RCC->CFGR, RCC_CFGR_HPRE);
1262:Drivers/STM32G4xx_HAL_Driver/Src/stm32g4xx_hal_rcc.c **** 
1263:Drivers/STM32G4xx_HAL_Driver/Src/stm32g4xx_hal_rcc.c ****   /* Get the APB1 configuration ----------------------------------------------*/
1264:Drivers/STM32G4xx_HAL_Driver/Src/stm32g4xx_hal_rcc.c ****   RCC_ClkInitStruct->APB1CLKDivider = READ_BIT(RCC->CFGR, RCC_CFGR_PPRE1);
1265:Drivers/STM32G4xx_HAL_Driver/Src/stm32g4xx_hal_rcc.c **** 
1266:Drivers/STM32G4xx_HAL_Driver/Src/stm32g4xx_hal_rcc.c ****   /* Get the APB2 configuration ----------------------------------------------*/
1267:Drivers/STM32G4xx_HAL_Driver/Src/stm32g4xx_hal_rcc.c ****   RCC_ClkInitStruct->APB2CLKDivider = (READ_BIT(RCC->CFGR, RCC_CFGR_PPRE2) >> 3U);
1268:Drivers/STM32G4xx_HAL_Driver/Src/stm32g4xx_hal_rcc.c **** 
1269:Drivers/STM32G4xx_HAL_Driver/Src/stm32g4xx_hal_rcc.c ****   /* Get the Flash Wait State (Latency) configuration ------------------------*/
1270:Drivers/STM32G4xx_HAL_Driver/Src/stm32g4xx_hal_rcc.c ****   *pFLatency = __HAL_FLASH_GET_LATENCY();
1271:Drivers/STM32G4xx_HAL_Driver/Src/stm32g4xx_hal_rcc.c **** }
1272:Drivers/STM32G4xx_HAL_Driver/Src/stm32g4xx_hal_rcc.c **** 
1273:Drivers/STM32G4xx_HAL_Driver/Src/stm32g4xx_hal_rcc.c **** /**
1274:Drivers/STM32G4xx_HAL_Driver/Src/stm32g4xx_hal_rcc.c ****   * @brief  Enable the Clock Security System.
1275:Drivers/STM32G4xx_HAL_Driver/Src/stm32g4xx_hal_rcc.c ****   * @note   If a failure is detected on the HSE oscillator clock, this oscillator
1276:Drivers/STM32G4xx_HAL_Driver/Src/stm32g4xx_hal_rcc.c ****   *         is automatically disabled and an interrupt is generated to inform the
1277:Drivers/STM32G4xx_HAL_Driver/Src/stm32g4xx_hal_rcc.c ****   *         software about the failure (Clock Security System Interrupt, CSSI),
1278:Drivers/STM32G4xx_HAL_Driver/Src/stm32g4xx_hal_rcc.c ****   *         allowing the MCU to perform rescue operations. The CSSI is linked to
1279:Drivers/STM32G4xx_HAL_Driver/Src/stm32g4xx_hal_rcc.c ****   *         the Cortex-M4 NMI (Non-Maskable Interrupt) exception vector.
1280:Drivers/STM32G4xx_HAL_Driver/Src/stm32g4xx_hal_rcc.c ****   * @note   The Clock Security System can only be cleared by reset.
1281:Drivers/STM32G4xx_HAL_Driver/Src/stm32g4xx_hal_rcc.c ****   * @retval None
1282:Drivers/STM32G4xx_HAL_Driver/Src/stm32g4xx_hal_rcc.c ****   */
1283:Drivers/STM32G4xx_HAL_Driver/Src/stm32g4xx_hal_rcc.c **** void HAL_RCC_EnableCSS(void)
1284:Drivers/STM32G4xx_HAL_Driver/Src/stm32g4xx_hal_rcc.c **** {
1285:Drivers/STM32G4xx_HAL_Driver/Src/stm32g4xx_hal_rcc.c ****   SET_BIT(RCC->CR, RCC_CR_CSSON) ;
1286:Drivers/STM32G4xx_HAL_Driver/Src/stm32g4xx_hal_rcc.c **** }
ARM GAS  C:\Users\82057\AppData\Local\Temp\ccODTTN9.s 			page 24


1287:Drivers/STM32G4xx_HAL_Driver/Src/stm32g4xx_hal_rcc.c **** 
1288:Drivers/STM32G4xx_HAL_Driver/Src/stm32g4xx_hal_rcc.c **** /**
1289:Drivers/STM32G4xx_HAL_Driver/Src/stm32g4xx_hal_rcc.c ****   * @brief  Enable the LSE Clock Security System.
1290:Drivers/STM32G4xx_HAL_Driver/Src/stm32g4xx_hal_rcc.c ****   * @note   If a failure is detected on the external 32 kHz oscillator,
1291:Drivers/STM32G4xx_HAL_Driver/Src/stm32g4xx_hal_rcc.c ****   *         the LSE clock is no longer supplied to the RTC but no hardware action
1292:Drivers/STM32G4xx_HAL_Driver/Src/stm32g4xx_hal_rcc.c ****   *         is made to the registers. If enabled, an interrupt will be generated
1293:Drivers/STM32G4xx_HAL_Driver/Src/stm32g4xx_hal_rcc.c ****   *         and handle through @ref RCCEx_EXTI_LINE_LSECSS
1294:Drivers/STM32G4xx_HAL_Driver/Src/stm32g4xx_hal_rcc.c ****   * @note   The Clock Security System can only be cleared by reset or after a LSE failure detection
1295:Drivers/STM32G4xx_HAL_Driver/Src/stm32g4xx_hal_rcc.c ****   * @retval None
1296:Drivers/STM32G4xx_HAL_Driver/Src/stm32g4xx_hal_rcc.c ****   */
1297:Drivers/STM32G4xx_HAL_Driver/Src/stm32g4xx_hal_rcc.c **** void HAL_RCC_EnableLSECSS(void)
1298:Drivers/STM32G4xx_HAL_Driver/Src/stm32g4xx_hal_rcc.c **** {
1299:Drivers/STM32G4xx_HAL_Driver/Src/stm32g4xx_hal_rcc.c ****   SET_BIT(RCC->BDCR, RCC_BDCR_LSECSSON) ;
1300:Drivers/STM32G4xx_HAL_Driver/Src/stm32g4xx_hal_rcc.c **** }
1301:Drivers/STM32G4xx_HAL_Driver/Src/stm32g4xx_hal_rcc.c **** 
1302:Drivers/STM32G4xx_HAL_Driver/Src/stm32g4xx_hal_rcc.c **** /**
1303:Drivers/STM32G4xx_HAL_Driver/Src/stm32g4xx_hal_rcc.c ****   * @brief  Disable the LSE Clock Security System.
1304:Drivers/STM32G4xx_HAL_Driver/Src/stm32g4xx_hal_rcc.c ****   * @note   After LSE failure detection, the software must disable LSECSSON
1305:Drivers/STM32G4xx_HAL_Driver/Src/stm32g4xx_hal_rcc.c ****   * @note   The Clock Security System can only be cleared by reset otherwise.
1306:Drivers/STM32G4xx_HAL_Driver/Src/stm32g4xx_hal_rcc.c ****   * @retval None
1307:Drivers/STM32G4xx_HAL_Driver/Src/stm32g4xx_hal_rcc.c ****   */
1308:Drivers/STM32G4xx_HAL_Driver/Src/stm32g4xx_hal_rcc.c **** void HAL_RCC_DisableLSECSS(void)
1309:Drivers/STM32G4xx_HAL_Driver/Src/stm32g4xx_hal_rcc.c **** {
1310:Drivers/STM32G4xx_HAL_Driver/Src/stm32g4xx_hal_rcc.c ****   CLEAR_BIT(RCC->BDCR, RCC_BDCR_LSECSSON) ;
1311:Drivers/STM32G4xx_HAL_Driver/Src/stm32g4xx_hal_rcc.c **** }
1312:Drivers/STM32G4xx_HAL_Driver/Src/stm32g4xx_hal_rcc.c **** 
1313:Drivers/STM32G4xx_HAL_Driver/Src/stm32g4xx_hal_rcc.c **** /**
1314:Drivers/STM32G4xx_HAL_Driver/Src/stm32g4xx_hal_rcc.c ****   * @brief Handle the RCC Clock Security System interrupt request.
1315:Drivers/STM32G4xx_HAL_Driver/Src/stm32g4xx_hal_rcc.c ****   * @note This API should be called under the NMI_Handler().
1316:Drivers/STM32G4xx_HAL_Driver/Src/stm32g4xx_hal_rcc.c ****   * @retval None
1317:Drivers/STM32G4xx_HAL_Driver/Src/stm32g4xx_hal_rcc.c ****   */
1318:Drivers/STM32G4xx_HAL_Driver/Src/stm32g4xx_hal_rcc.c **** void HAL_RCC_NMI_IRQHandler(void)
1319:Drivers/STM32G4xx_HAL_Driver/Src/stm32g4xx_hal_rcc.c **** {
1320:Drivers/STM32G4xx_HAL_Driver/Src/stm32g4xx_hal_rcc.c ****   /* Check RCC CSSF interrupt flag  */
1321:Drivers/STM32G4xx_HAL_Driver/Src/stm32g4xx_hal_rcc.c ****   if(__HAL_RCC_GET_IT(RCC_IT_CSS))
1322:Drivers/STM32G4xx_HAL_Driver/Src/stm32g4xx_hal_rcc.c ****   {
1323:Drivers/STM32G4xx_HAL_Driver/Src/stm32g4xx_hal_rcc.c ****     /* RCC Clock Security System interrupt user callback */
1324:Drivers/STM32G4xx_HAL_Driver/Src/stm32g4xx_hal_rcc.c ****     HAL_RCC_CSSCallback();
1325:Drivers/STM32G4xx_HAL_Driver/Src/stm32g4xx_hal_rcc.c **** 
1326:Drivers/STM32G4xx_HAL_Driver/Src/stm32g4xx_hal_rcc.c ****     /* Clear RCC CSS pending bit */
1327:Drivers/STM32G4xx_HAL_Driver/Src/stm32g4xx_hal_rcc.c ****     __HAL_RCC_CLEAR_IT(RCC_IT_CSS);
1328:Drivers/STM32G4xx_HAL_Driver/Src/stm32g4xx_hal_rcc.c ****   }
1329:Drivers/STM32G4xx_HAL_Driver/Src/stm32g4xx_hal_rcc.c **** }
1330:Drivers/STM32G4xx_HAL_Driver/Src/stm32g4xx_hal_rcc.c **** 
1331:Drivers/STM32G4xx_HAL_Driver/Src/stm32g4xx_hal_rcc.c **** /**
1332:Drivers/STM32G4xx_HAL_Driver/Src/stm32g4xx_hal_rcc.c ****   * @brief  RCC Clock Security System interrupt callback.
1333:Drivers/STM32G4xx_HAL_Driver/Src/stm32g4xx_hal_rcc.c ****   * @retval none
1334:Drivers/STM32G4xx_HAL_Driver/Src/stm32g4xx_hal_rcc.c ****   */
1335:Drivers/STM32G4xx_HAL_Driver/Src/stm32g4xx_hal_rcc.c **** __weak void HAL_RCC_CSSCallback(void)
1336:Drivers/STM32G4xx_HAL_Driver/Src/stm32g4xx_hal_rcc.c **** {
1337:Drivers/STM32G4xx_HAL_Driver/Src/stm32g4xx_hal_rcc.c ****   /* NOTE : This function should not be modified, when the callback is needed,
1338:Drivers/STM32G4xx_HAL_Driver/Src/stm32g4xx_hal_rcc.c ****             the HAL_RCC_CSSCallback should be implemented in the user file
1339:Drivers/STM32G4xx_HAL_Driver/Src/stm32g4xx_hal_rcc.c ****    */
1340:Drivers/STM32G4xx_HAL_Driver/Src/stm32g4xx_hal_rcc.c **** }
1341:Drivers/STM32G4xx_HAL_Driver/Src/stm32g4xx_hal_rcc.c **** 
1342:Drivers/STM32G4xx_HAL_Driver/Src/stm32g4xx_hal_rcc.c **** /**
1343:Drivers/STM32G4xx_HAL_Driver/Src/stm32g4xx_hal_rcc.c ****   * @}
ARM GAS  C:\Users\82057\AppData\Local\Temp\ccODTTN9.s 			page 25


1344:Drivers/STM32G4xx_HAL_Driver/Src/stm32g4xx_hal_rcc.c ****   */
1345:Drivers/STM32G4xx_HAL_Driver/Src/stm32g4xx_hal_rcc.c **** 
1346:Drivers/STM32G4xx_HAL_Driver/Src/stm32g4xx_hal_rcc.c **** /**
1347:Drivers/STM32G4xx_HAL_Driver/Src/stm32g4xx_hal_rcc.c ****   * @}
1348:Drivers/STM32G4xx_HAL_Driver/Src/stm32g4xx_hal_rcc.c ****   */
1349:Drivers/STM32G4xx_HAL_Driver/Src/stm32g4xx_hal_rcc.c **** 
1350:Drivers/STM32G4xx_HAL_Driver/Src/stm32g4xx_hal_rcc.c **** /* Private function prototypes -----------------------------------------------*/
1351:Drivers/STM32G4xx_HAL_Driver/Src/stm32g4xx_hal_rcc.c **** /** @addtogroup RCC_Private_Functions
1352:Drivers/STM32G4xx_HAL_Driver/Src/stm32g4xx_hal_rcc.c ****   * @{
1353:Drivers/STM32G4xx_HAL_Driver/Src/stm32g4xx_hal_rcc.c ****   */
1354:Drivers/STM32G4xx_HAL_Driver/Src/stm32g4xx_hal_rcc.c **** 
1355:Drivers/STM32G4xx_HAL_Driver/Src/stm32g4xx_hal_rcc.c **** /**
1356:Drivers/STM32G4xx_HAL_Driver/Src/stm32g4xx_hal_rcc.c ****   * @brief  Compute SYSCLK frequency based on PLL SYSCLK source.
1357:Drivers/STM32G4xx_HAL_Driver/Src/stm32g4xx_hal_rcc.c ****   * @retval SYSCLK frequency
1358:Drivers/STM32G4xx_HAL_Driver/Src/stm32g4xx_hal_rcc.c ****   */
1359:Drivers/STM32G4xx_HAL_Driver/Src/stm32g4xx_hal_rcc.c **** static uint32_t RCC_GetSysClockFreqFromPLLSource(void)
1360:Drivers/STM32G4xx_HAL_Driver/Src/stm32g4xx_hal_rcc.c **** {
  27              		.loc 1 1360 0
  28              		.cfi_startproc
  29              		@ args = 0, pretend = 0, frame = 0
  30              		@ frame_needed = 0, uses_anonymous_args = 0
  31              		@ link register save eliminated.
1361:Drivers/STM32G4xx_HAL_Driver/Src/stm32g4xx_hal_rcc.c ****   uint32_t pllvco, pllsource, pllr, pllm;
1362:Drivers/STM32G4xx_HAL_Driver/Src/stm32g4xx_hal_rcc.c ****   uint32_t sysclockfreq;
1363:Drivers/STM32G4xx_HAL_Driver/Src/stm32g4xx_hal_rcc.c **** 
1364:Drivers/STM32G4xx_HAL_Driver/Src/stm32g4xx_hal_rcc.c ****   /* PLL_VCO = (HSE_VALUE or HSI_VALUE/ PLLM) * PLLN
1365:Drivers/STM32G4xx_HAL_Driver/Src/stm32g4xx_hal_rcc.c ****      SYSCLK = PLL_VCO / PLLR
1366:Drivers/STM32G4xx_HAL_Driver/Src/stm32g4xx_hal_rcc.c ****    */
1367:Drivers/STM32G4xx_HAL_Driver/Src/stm32g4xx_hal_rcc.c ****   pllsource = READ_BIT(RCC->PLLCFGR, RCC_PLLCFGR_PLLSRC);
  32              		.loc 1 1367 0
  33 0000 124A     		ldr	r2, .L7
  34 0002 D368     		ldr	r3, [r2, #12]
  35 0004 03F00303 		and	r3, r3, #3
  36              	.LVL0:
1368:Drivers/STM32G4xx_HAL_Driver/Src/stm32g4xx_hal_rcc.c ****   pllm = (READ_BIT(RCC->PLLCFGR, RCC_PLLCFGR_PLLM) >> RCC_PLLCFGR_PLLM_Pos) + 1U ;
  37              		.loc 1 1368 0
  38 0008 D068     		ldr	r0, [r2, #12]
  39 000a C0F30310 		ubfx	r0, r0, #4, #4
  40 000e 0130     		adds	r0, r0, #1
  41              	.LVL1:
1369:Drivers/STM32G4xx_HAL_Driver/Src/stm32g4xx_hal_rcc.c **** 
1370:Drivers/STM32G4xx_HAL_Driver/Src/stm32g4xx_hal_rcc.c ****   switch (pllsource)
  42              		.loc 1 1370 0
  43 0010 032B     		cmp	r3, #3
  44 0012 11D0     		beq	.L6
1371:Drivers/STM32G4xx_HAL_Driver/Src/stm32g4xx_hal_rcc.c ****   {
1372:Drivers/STM32G4xx_HAL_Driver/Src/stm32g4xx_hal_rcc.c ****   case RCC_PLLSOURCE_HSE:  /* HSE used as PLL clock source */
1373:Drivers/STM32G4xx_HAL_Driver/Src/stm32g4xx_hal_rcc.c ****     pllvco = (HSE_VALUE / pllm) * (READ_BIT(RCC->PLLCFGR, RCC_PLLCFGR_PLLN) >> RCC_PLLCFGR_PLLN_Pos
1374:Drivers/STM32G4xx_HAL_Driver/Src/stm32g4xx_hal_rcc.c ****     break;
1375:Drivers/STM32G4xx_HAL_Driver/Src/stm32g4xx_hal_rcc.c **** 
1376:Drivers/STM32G4xx_HAL_Driver/Src/stm32g4xx_hal_rcc.c ****   case RCC_PLLSOURCE_HSI:  /* HSI used as PLL clock source */
1377:Drivers/STM32G4xx_HAL_Driver/Src/stm32g4xx_hal_rcc.c ****   default:
1378:Drivers/STM32G4xx_HAL_Driver/Src/stm32g4xx_hal_rcc.c ****     pllvco = (HSI_VALUE / pllm) * (READ_BIT(RCC->PLLCFGR, RCC_PLLCFGR_PLLN) >> RCC_PLLCFGR_PLLN_Pos
  45              		.loc 1 1378 0
  46 0014 0E4B     		ldr	r3, .L7+4
  47              	.LVL2:
  48 0016 B3FBF0F3 		udiv	r3, r3, r0
ARM GAS  C:\Users\82057\AppData\Local\Temp\ccODTTN9.s 			page 26


  49 001a 0C4A     		ldr	r2, .L7
  50 001c D068     		ldr	r0, [r2, #12]
  51              	.LVL3:
  52 001e C0F30620 		ubfx	r0, r0, #8, #7
  53 0022 00FB03F0 		mul	r0, r0, r3
  54              	.LVL4:
  55              	.L4:
1379:Drivers/STM32G4xx_HAL_Driver/Src/stm32g4xx_hal_rcc.c ****     break;
1380:Drivers/STM32G4xx_HAL_Driver/Src/stm32g4xx_hal_rcc.c ****   }
1381:Drivers/STM32G4xx_HAL_Driver/Src/stm32g4xx_hal_rcc.c **** 
1382:Drivers/STM32G4xx_HAL_Driver/Src/stm32g4xx_hal_rcc.c ****   pllr = ((READ_BIT(RCC->PLLCFGR, RCC_PLLCFGR_PLLR) >> RCC_PLLCFGR_PLLR_Pos) + 1U ) * 2U;
  56              		.loc 1 1382 0
  57 0026 094B     		ldr	r3, .L7
  58 0028 DB68     		ldr	r3, [r3, #12]
  59 002a C3F34163 		ubfx	r3, r3, #25, #2
  60 002e 0133     		adds	r3, r3, #1
  61 0030 5B00     		lsls	r3, r3, #1
  62              	.LVL5:
1383:Drivers/STM32G4xx_HAL_Driver/Src/stm32g4xx_hal_rcc.c ****   sysclockfreq = pllvco/pllr;
1384:Drivers/STM32G4xx_HAL_Driver/Src/stm32g4xx_hal_rcc.c **** 
1385:Drivers/STM32G4xx_HAL_Driver/Src/stm32g4xx_hal_rcc.c ****   return sysclockfreq;
1386:Drivers/STM32G4xx_HAL_Driver/Src/stm32g4xx_hal_rcc.c **** }
  63              		.loc 1 1386 0
  64 0032 B0FBF3F0 		udiv	r0, r0, r3
  65              	.LVL6:
  66 0036 7047     		bx	lr
  67              	.LVL7:
  68              	.L6:
1373:Drivers/STM32G4xx_HAL_Driver/Src/stm32g4xx_hal_rcc.c ****     break;
  69              		.loc 1 1373 0
  70 0038 064B     		ldr	r3, .L7+8
  71              	.LVL8:
  72 003a B3FBF0F3 		udiv	r3, r3, r0
  73 003e D068     		ldr	r0, [r2, #12]
  74              	.LVL9:
  75 0040 C0F30620 		ubfx	r0, r0, #8, #7
  76 0044 00FB03F0 		mul	r0, r0, r3
  77              	.LVL10:
1374:Drivers/STM32G4xx_HAL_Driver/Src/stm32g4xx_hal_rcc.c **** 
  78              		.loc 1 1374 0
  79 0048 EDE7     		b	.L4
  80              	.L8:
  81 004a 00BF     		.align	2
  82              	.L7:
  83 004c 00100240 		.word	1073876992
  84 0050 0024F400 		.word	16000000
  85 0054 00127A00 		.word	8000000
  86              		.cfi_endproc
  87              	.LFE344:
  89              		.section	.text.HAL_RCC_DeInit,"ax",%progbits
  90              		.align	1
  91              		.global	HAL_RCC_DeInit
  92              		.syntax unified
  93              		.thumb
  94              		.thumb_func
  95              		.fpu fpv4-sp-d16
  97              	HAL_RCC_DeInit:
ARM GAS  C:\Users\82057\AppData\Local\Temp\ccODTTN9.s 			page 27


  98              	.LFB329:
 220:Drivers/STM32G4xx_HAL_Driver/Src/stm32g4xx_hal_rcc.c ****   uint32_t tickstart;
  99              		.loc 1 220 0
 100              		.cfi_startproc
 101              		@ args = 0, pretend = 0, frame = 0
 102              		@ frame_needed = 0, uses_anonymous_args = 0
 103 0000 38B5     		push	{r3, r4, r5, lr}
 104              	.LCFI0:
 105              		.cfi_def_cfa_offset 16
 106              		.cfi_offset 3, -16
 107              		.cfi_offset 4, -12
 108              		.cfi_offset 5, -8
 109              		.cfi_offset 14, -4
 224:Drivers/STM32G4xx_HAL_Driver/Src/stm32g4xx_hal_rcc.c **** 
 110              		.loc 1 224 0
 111 0002 FFF7FEFF 		bl	HAL_GetTick
 112              	.LVL11:
 113 0006 0446     		mov	r4, r0
 114              	.LVL12:
 227:Drivers/STM32G4xx_HAL_Driver/Src/stm32g4xx_hal_rcc.c **** 
 115              		.loc 1 227 0
 116 0008 2C4A     		ldr	r2, .L26
 117 000a 1368     		ldr	r3, [r2]
 118 000c 43F48073 		orr	r3, r3, #256
 119 0010 1360     		str	r3, [r2]
 120              	.LVL13:
 121              	.L10:
 230:Drivers/STM32G4xx_HAL_Driver/Src/stm32g4xx_hal_rcc.c ****   {
 122              		.loc 1 230 0
 123 0012 2A4B     		ldr	r3, .L26
 124 0014 1B68     		ldr	r3, [r3]
 125 0016 13F4806F 		tst	r3, #1024
 126 001a 07D1     		bne	.L22
 232:Drivers/STM32G4xx_HAL_Driver/Src/stm32g4xx_hal_rcc.c ****     {
 127              		.loc 1 232 0
 128 001c FFF7FEFF 		bl	HAL_GetTick
 129              	.LVL14:
 130 0020 001B     		subs	r0, r0, r4
 131 0022 0228     		cmp	r0, #2
 132 0024 F5D9     		bls	.L10
 234:Drivers/STM32G4xx_HAL_Driver/Src/stm32g4xx_hal_rcc.c ****     }
 133              		.loc 1 234 0
 134 0026 0324     		movs	r4, #3
 135              	.LVL15:
 136              	.L11:
 296:Drivers/STM32G4xx_HAL_Driver/Src/stm32g4xx_hal_rcc.c **** 
 137              		.loc 1 296 0
 138 0028 2046     		mov	r0, r4
 139 002a 38BD     		pop	{r3, r4, r5, pc}
 140              	.LVL16:
 141              	.L22:
 239:Drivers/STM32G4xx_HAL_Driver/Src/stm32g4xx_hal_rcc.c **** 
 142              		.loc 1 239 0
 143 002c 234D     		ldr	r5, .L26
 144 002e 6B68     		ldr	r3, [r5, #4]
 145 0030 43F08043 		orr	r3, r3, #1073741824
 146 0034 6B60     		str	r3, [r5, #4]
ARM GAS  C:\Users\82057\AppData\Local\Temp\ccODTTN9.s 			page 28


 242:Drivers/STM32G4xx_HAL_Driver/Src/stm32g4xx_hal_rcc.c **** 
 147              		.loc 1 242 0
 148 0036 FFF7FEFF 		bl	HAL_GetTick
 149              	.LVL17:
 150 003a 0446     		mov	r4, r0
 151              	.LVL18:
 245:Drivers/STM32G4xx_HAL_Driver/Src/stm32g4xx_hal_rcc.c **** 
 152              		.loc 1 245 0
 153 003c 0123     		movs	r3, #1
 154 003e AB60     		str	r3, [r5, #8]
 155              	.LVL19:
 156              	.L13:
 248:Drivers/STM32G4xx_HAL_Driver/Src/stm32g4xx_hal_rcc.c ****   {
 157              		.loc 1 248 0
 158 0040 1E4B     		ldr	r3, .L26
 159 0042 9B68     		ldr	r3, [r3, #8]
 160 0044 03F00C03 		and	r3, r3, #12
 161 0048 042B     		cmp	r3, #4
 162 004a 08D0     		beq	.L23
 250:Drivers/STM32G4xx_HAL_Driver/Src/stm32g4xx_hal_rcc.c ****     {
 163              		.loc 1 250 0
 164 004c FFF7FEFF 		bl	HAL_GetTick
 165              	.LVL20:
 166 0050 001B     		subs	r0, r0, r4
 167 0052 41F28833 		movw	r3, #5000
 168 0056 9842     		cmp	r0, r3
 169 0058 F2D9     		bls	.L13
 252:Drivers/STM32G4xx_HAL_Driver/Src/stm32g4xx_hal_rcc.c ****     }
 170              		.loc 1 252 0
 171 005a 0324     		movs	r4, #3
 172              	.LVL21:
 173 005c E4E7     		b	.L11
 174              	.LVL22:
 175              	.L23:
 257:Drivers/STM32G4xx_HAL_Driver/Src/stm32g4xx_hal_rcc.c **** 
 176              		.loc 1 257 0
 177 005e 184B     		ldr	r3, .L26+4
 178 0060 184A     		ldr	r2, .L26+8
 179 0062 1A60     		str	r2, [r3]
 260:Drivers/STM32G4xx_HAL_Driver/Src/stm32g4xx_hal_rcc.c ****   {
 180              		.loc 1 260 0
 181 0064 184B     		ldr	r3, .L26+12
 182 0066 1868     		ldr	r0, [r3]
 183 0068 FFF7FEFF 		bl	HAL_InitTick
 184              	.LVL23:
 185 006c 0446     		mov	r4, r0
 186              	.LVL24:
 187 006e 08B1     		cbz	r0, .L24
 262:Drivers/STM32G4xx_HAL_Driver/Src/stm32g4xx_hal_rcc.c ****   }
 188              		.loc 1 262 0
 189 0070 0124     		movs	r4, #1
 190 0072 D9E7     		b	.L11
 191              	.L24:
 266:Drivers/STM32G4xx_HAL_Driver/Src/stm32g4xx_hal_rcc.c **** 
 192              		.loc 1 266 0
 193 0074 114B     		ldr	r3, .L26
 194 0076 4FF48072 		mov	r2, #256
ARM GAS  C:\Users\82057\AppData\Local\Temp\ccODTTN9.s 			page 29


 195 007a 1A60     		str	r2, [r3]
 269:Drivers/STM32G4xx_HAL_Driver/Src/stm32g4xx_hal_rcc.c **** 
 196              		.loc 1 269 0
 197 007c 1A60     		str	r2, [r3]
 272:Drivers/STM32G4xx_HAL_Driver/Src/stm32g4xx_hal_rcc.c **** 
 198              		.loc 1 272 0
 199 007e FFF7FEFF 		bl	HAL_GetTick
 200              	.LVL25:
 201 0082 0546     		mov	r5, r0
 202              	.LVL26:
 203              	.L15:
 275:Drivers/STM32G4xx_HAL_Driver/Src/stm32g4xx_hal_rcc.c ****   {
 204              		.loc 1 275 0
 205 0084 0D4B     		ldr	r3, .L26
 206 0086 1B68     		ldr	r3, [r3]
 207 0088 13F0007F 		tst	r3, #33554432
 208 008c 06D0     		beq	.L25
 277:Drivers/STM32G4xx_HAL_Driver/Src/stm32g4xx_hal_rcc.c ****     {
 209              		.loc 1 277 0
 210 008e FFF7FEFF 		bl	HAL_GetTick
 211              	.LVL27:
 212 0092 401B     		subs	r0, r0, r5
 213 0094 0228     		cmp	r0, #2
 214 0096 F5D9     		bls	.L15
 279:Drivers/STM32G4xx_HAL_Driver/Src/stm32g4xx_hal_rcc.c ****     }
 215              		.loc 1 279 0
 216 0098 0324     		movs	r4, #3
 217 009a C5E7     		b	.L11
 218              	.L25:
 284:Drivers/STM32G4xx_HAL_Driver/Src/stm32g4xx_hal_rcc.c **** 
 219              		.loc 1 284 0
 220 009c 074B     		ldr	r3, .L26
 221 009e 4FF48052 		mov	r2, #4096
 222 00a2 DA60     		str	r2, [r3, #12]
 287:Drivers/STM32G4xx_HAL_Driver/Src/stm32g4xx_hal_rcc.c **** 
 223              		.loc 1 287 0
 224 00a4 0022     		movs	r2, #0
 225 00a6 9A61     		str	r2, [r3, #24]
 290:Drivers/STM32G4xx_HAL_Driver/Src/stm32g4xx_hal_rcc.c **** 
 226              		.loc 1 290 0
 227 00a8 4FF0FF32 		mov	r2, #-1
 228 00ac 1A62     		str	r2, [r3, #32]
 293:Drivers/STM32G4xx_HAL_Driver/Src/stm32g4xx_hal_rcc.c **** 
 229              		.loc 1 293 0
 230 00ae D3F89420 		ldr	r2, [r3, #148]
 231 00b2 42F40002 		orr	r2, r2, #8388608
 232 00b6 C3F89420 		str	r2, [r3, #148]
 295:Drivers/STM32G4xx_HAL_Driver/Src/stm32g4xx_hal_rcc.c **** }
 233              		.loc 1 295 0
 234 00ba B5E7     		b	.L11
 235              	.L27:
 236              		.align	2
 237              	.L26:
 238 00bc 00100240 		.word	1073876992
 239 00c0 00000000 		.word	SystemCoreClock
 240 00c4 0024F400 		.word	16000000
 241 00c8 00000000 		.word	uwTickPrio
ARM GAS  C:\Users\82057\AppData\Local\Temp\ccODTTN9.s 			page 30


 242              		.cfi_endproc
 243              	.LFE329:
 245              		.section	.text.HAL_RCC_OscConfig,"ax",%progbits
 246              		.align	1
 247              		.global	HAL_RCC_OscConfig
 248              		.syntax unified
 249              		.thumb
 250              		.thumb_func
 251              		.fpu fpv4-sp-d16
 253              	HAL_RCC_OscConfig:
 254              	.LFB330:
 313:Drivers/STM32G4xx_HAL_Driver/Src/stm32g4xx_hal_rcc.c ****   uint32_t tickstart;
 255              		.loc 1 313 0
 256              		.cfi_startproc
 257              		@ args = 0, pretend = 0, frame = 8
 258              		@ frame_needed = 0, uses_anonymous_args = 0
 259              	.LVL28:
 319:Drivers/STM32G4xx_HAL_Driver/Src/stm32g4xx_hal_rcc.c ****   {
 260              		.loc 1 319 0
 261 0000 0028     		cmp	r0, #0
 262 0002 00F05982 		beq	.L86
 313:Drivers/STM32G4xx_HAL_Driver/Src/stm32g4xx_hal_rcc.c ****   uint32_t tickstart;
 263              		.loc 1 313 0
 264 0006 70B5     		push	{r4, r5, r6, lr}
 265              	.LCFI1:
 266              		.cfi_def_cfa_offset 16
 267              		.cfi_offset 4, -16
 268              		.cfi_offset 5, -12
 269              		.cfi_offset 6, -8
 270              		.cfi_offset 14, -4
 271 0008 82B0     		sub	sp, sp, #8
 272              	.LCFI2:
 273              		.cfi_def_cfa_offset 24
 274 000a 0446     		mov	r4, r0
 328:Drivers/STM32G4xx_HAL_Driver/Src/stm32g4xx_hal_rcc.c ****   {
 275              		.loc 1 328 0
 276 000c 0368     		ldr	r3, [r0]
 277 000e 13F0010F 		tst	r3, #1
 278 0012 37D0     		beq	.L30
 333:Drivers/STM32G4xx_HAL_Driver/Src/stm32g4xx_hal_rcc.c ****     temp_pllckcfg = __HAL_RCC_GET_PLL_OSCSOURCE();
 279              		.loc 1 333 0
 280 0014 B44A     		ldr	r2, .L137
 281 0016 9368     		ldr	r3, [r2, #8]
 282 0018 03F00C03 		and	r3, r3, #12
 283              	.LVL29:
 334:Drivers/STM32G4xx_HAL_Driver/Src/stm32g4xx_hal_rcc.c **** 
 284              		.loc 1 334 0
 285 001c D268     		ldr	r2, [r2, #12]
 286 001e 02F00302 		and	r2, r2, #3
 287              	.LVL30:
 337:Drivers/STM32G4xx_HAL_Driver/Src/stm32g4xx_hal_rcc.c ****     {
 288              		.loc 1 337 0
 289 0022 0C2B     		cmp	r3, #12
 290 0024 23D0     		beq	.L117
 291              	.L31:
 337:Drivers/STM32G4xx_HAL_Driver/Src/stm32g4xx_hal_rcc.c ****     {
 292              		.loc 1 337 0 is_stmt 0 discriminator 3
ARM GAS  C:\Users\82057\AppData\Local\Temp\ccODTTN9.s 			page 31


 293 0026 082B     		cmp	r3, #8
 294 0028 23D0     		beq	.L32
 347:Drivers/STM32G4xx_HAL_Driver/Src/stm32g4xx_hal_rcc.c **** 
 295              		.loc 1 347 0 is_stmt 1
 296 002a 6368     		ldr	r3, [r4, #4]
 297              	.LVL31:
 298 002c B3F5803F 		cmp	r3, #65536
 299 0030 4ED0     		beq	.L118
 347:Drivers/STM32G4xx_HAL_Driver/Src/stm32g4xx_hal_rcc.c **** 
 300              		.loc 1 347 0 is_stmt 0 discriminator 2
 301 0032 B3F5A02F 		cmp	r3, #327680
 302 0036 51D0     		beq	.L119
 347:Drivers/STM32G4xx_HAL_Driver/Src/stm32g4xx_hal_rcc.c **** 
 303              		.loc 1 347 0 discriminator 4
 304 0038 AB4B     		ldr	r3, .L137
 305 003a 1A68     		ldr	r2, [r3]
 306              	.LVL32:
 307 003c 22F48032 		bic	r2, r2, #65536
 308 0040 1A60     		str	r2, [r3]
 309 0042 1A68     		ldr	r2, [r3]
 310 0044 22F48022 		bic	r2, r2, #262144
 311 0048 1A60     		str	r2, [r3]
 312              	.L35:
 350:Drivers/STM32G4xx_HAL_Driver/Src/stm32g4xx_hal_rcc.c ****       {
 313              		.loc 1 350 0 is_stmt 1
 314 004a 6368     		ldr	r3, [r4, #4]
 315 004c 002B     		cmp	r3, #0
 316 004e 52D0     		beq	.L37
 353:Drivers/STM32G4xx_HAL_Driver/Src/stm32g4xx_hal_rcc.c **** 
 317              		.loc 1 353 0
 318 0050 FFF7FEFF 		bl	HAL_GetTick
 319              	.LVL33:
 320 0054 0546     		mov	r5, r0
 321              	.LVL34:
 322              	.L38:
 356:Drivers/STM32G4xx_HAL_Driver/Src/stm32g4xx_hal_rcc.c ****         {
 323              		.loc 1 356 0
 324 0056 A44B     		ldr	r3, .L137
 325 0058 1B68     		ldr	r3, [r3]
 326 005a 13F4003F 		tst	r3, #131072
 327 005e 11D1     		bne	.L30
 358:Drivers/STM32G4xx_HAL_Driver/Src/stm32g4xx_hal_rcc.c ****           {
 328              		.loc 1 358 0
 329 0060 FFF7FEFF 		bl	HAL_GetTick
 330              	.LVL35:
 331 0064 401B     		subs	r0, r0, r5
 332 0066 6428     		cmp	r0, #100
 333 0068 F5D9     		bls	.L38
 360:Drivers/STM32G4xx_HAL_Driver/Src/stm32g4xx_hal_rcc.c ****           }
 334              		.loc 1 360 0
 335 006a 0320     		movs	r0, #3
 336 006c 2DE2     		b	.L29
 337              	.LVL36:
 338              	.L117:
 337:Drivers/STM32G4xx_HAL_Driver/Src/stm32g4xx_hal_rcc.c ****     {
 339              		.loc 1 337 0 discriminator 1
 340 006e 032A     		cmp	r2, #3
ARM GAS  C:\Users\82057\AppData\Local\Temp\ccODTTN9.s 			page 32


 341 0070 D9D1     		bne	.L31
 342              	.L32:
 339:Drivers/STM32G4xx_HAL_Driver/Src/stm32g4xx_hal_rcc.c ****       {
 343              		.loc 1 339 0
 344 0072 9D4B     		ldr	r3, .L137
 345              	.LVL37:
 346 0074 1B68     		ldr	r3, [r3]
 347 0076 13F4003F 		tst	r3, #131072
 348 007a 03D0     		beq	.L30
 339:Drivers/STM32G4xx_HAL_Driver/Src/stm32g4xx_hal_rcc.c ****       {
 349              		.loc 1 339 0 is_stmt 0 discriminator 1
 350 007c 6368     		ldr	r3, [r4, #4]
 351 007e 002B     		cmp	r3, #0
 352 0080 00F01C82 		beq	.L120
 353              	.LVL38:
 354              	.L30:
 381:Drivers/STM32G4xx_HAL_Driver/Src/stm32g4xx_hal_rcc.c ****   {
 355              		.loc 1 381 0 is_stmt 1
 356 0084 2368     		ldr	r3, [r4]
 357 0086 13F0020F 		tst	r3, #2
 358 008a 5DD0     		beq	.L42
 388:Drivers/STM32G4xx_HAL_Driver/Src/stm32g4xx_hal_rcc.c ****     temp_pllckcfg = __HAL_RCC_GET_PLL_OSCSOURCE();
 359              		.loc 1 388 0
 360 008c 964A     		ldr	r2, .L137
 361 008e 9368     		ldr	r3, [r2, #8]
 362 0090 03F00C03 		and	r3, r3, #12
 363              	.LVL39:
 389:Drivers/STM32G4xx_HAL_Driver/Src/stm32g4xx_hal_rcc.c ****     if (((temp_sysclksrc == RCC_CFGR_SWS_PLL) && (temp_pllckcfg == RCC_PLLSOURCE_HSI)) || (temp_sys
 364              		.loc 1 389 0
 365 0094 D268     		ldr	r2, [r2, #12]
 366 0096 02F00302 		and	r2, r2, #3
 367              	.LVL40:
 390:Drivers/STM32G4xx_HAL_Driver/Src/stm32g4xx_hal_rcc.c ****     {
 368              		.loc 1 390 0
 369 009a 0C2B     		cmp	r3, #12
 370 009c 3AD0     		beq	.L121
 371              	.L43:
 390:Drivers/STM32G4xx_HAL_Driver/Src/stm32g4xx_hal_rcc.c ****     {
 372              		.loc 1 390 0 is_stmt 0 discriminator 3
 373 009e 042B     		cmp	r3, #4
 374 00a0 3AD0     		beq	.L44
 413:Drivers/STM32G4xx_HAL_Driver/Src/stm32g4xx_hal_rcc.c ****       {
 375              		.loc 1 413 0 is_stmt 1
 376 00a2 E368     		ldr	r3, [r4, #12]
 377              	.LVL41:
 378 00a4 002B     		cmp	r3, #0
 379 00a6 75D0     		beq	.L47
 416:Drivers/STM32G4xx_HAL_Driver/Src/stm32g4xx_hal_rcc.c **** 
 380              		.loc 1 416 0
 381 00a8 8F4A     		ldr	r2, .L137
 382              	.LVL42:
 383 00aa 1368     		ldr	r3, [r2]
 384 00ac 43F48073 		orr	r3, r3, #256
 385 00b0 1360     		str	r3, [r2]
 419:Drivers/STM32G4xx_HAL_Driver/Src/stm32g4xx_hal_rcc.c **** 
 386              		.loc 1 419 0
 387 00b2 FFF7FEFF 		bl	HAL_GetTick
ARM GAS  C:\Users\82057\AppData\Local\Temp\ccODTTN9.s 			page 33


 388              	.LVL43:
 389 00b6 0546     		mov	r5, r0
 390              	.LVL44:
 391              	.L48:
 422:Drivers/STM32G4xx_HAL_Driver/Src/stm32g4xx_hal_rcc.c ****         {
 392              		.loc 1 422 0
 393 00b8 8B4B     		ldr	r3, .L137
 394 00ba 1B68     		ldr	r3, [r3]
 395 00bc 13F4806F 		tst	r3, #1024
 396 00c0 5FD1     		bne	.L122
 424:Drivers/STM32G4xx_HAL_Driver/Src/stm32g4xx_hal_rcc.c ****           {
 397              		.loc 1 424 0
 398 00c2 FFF7FEFF 		bl	HAL_GetTick
 399              	.LVL45:
 400 00c6 401B     		subs	r0, r0, r5
 401 00c8 0228     		cmp	r0, #2
 402 00ca F5D9     		bls	.L48
 426:Drivers/STM32G4xx_HAL_Driver/Src/stm32g4xx_hal_rcc.c ****           }
 403              		.loc 1 426 0
 404 00cc 0320     		movs	r0, #3
 405 00ce FCE1     		b	.L29
 406              	.LVL46:
 407              	.L118:
 347:Drivers/STM32G4xx_HAL_Driver/Src/stm32g4xx_hal_rcc.c **** 
 408              		.loc 1 347 0 discriminator 1
 409 00d0 854A     		ldr	r2, .L137
 410              	.LVL47:
 411 00d2 1368     		ldr	r3, [r2]
 412 00d4 43F48033 		orr	r3, r3, #65536
 413 00d8 1360     		str	r3, [r2]
 414 00da B6E7     		b	.L35
 415              	.LVL48:
 416              	.L119:
 347:Drivers/STM32G4xx_HAL_Driver/Src/stm32g4xx_hal_rcc.c **** 
 417              		.loc 1 347 0 is_stmt 0 discriminator 3
 418 00dc 03F18043 		add	r3, r3, #1073741824
 419 00e0 A3F53C33 		sub	r3, r3, #192512
 420 00e4 1A68     		ldr	r2, [r3]
 421              	.LVL49:
 422 00e6 42F48022 		orr	r2, r2, #262144
 423 00ea 1A60     		str	r2, [r3]
 424 00ec 1A68     		ldr	r2, [r3]
 425 00ee 42F48032 		orr	r2, r2, #65536
 426 00f2 1A60     		str	r2, [r3]
 427 00f4 A9E7     		b	.L35
 428              	.L37:
 367:Drivers/STM32G4xx_HAL_Driver/Src/stm32g4xx_hal_rcc.c **** 
 429              		.loc 1 367 0 is_stmt 1
 430 00f6 FFF7FEFF 		bl	HAL_GetTick
 431              	.LVL50:
 432 00fa 0546     		mov	r5, r0
 433              	.LVL51:
 434              	.L40:
 370:Drivers/STM32G4xx_HAL_Driver/Src/stm32g4xx_hal_rcc.c ****         {
 435              		.loc 1 370 0
 436 00fc 7A4B     		ldr	r3, .L137
 437 00fe 1B68     		ldr	r3, [r3]
ARM GAS  C:\Users\82057\AppData\Local\Temp\ccODTTN9.s 			page 34


 438 0100 13F4003F 		tst	r3, #131072
 439 0104 BED0     		beq	.L30
 372:Drivers/STM32G4xx_HAL_Driver/Src/stm32g4xx_hal_rcc.c ****           {
 440              		.loc 1 372 0
 441 0106 FFF7FEFF 		bl	HAL_GetTick
 442              	.LVL52:
 443 010a 401B     		subs	r0, r0, r5
 444 010c 6428     		cmp	r0, #100
 445 010e F5D9     		bls	.L40
 374:Drivers/STM32G4xx_HAL_Driver/Src/stm32g4xx_hal_rcc.c ****           }
 446              		.loc 1 374 0
 447 0110 0320     		movs	r0, #3
 448 0112 DAE1     		b	.L29
 449              	.LVL53:
 450              	.L121:
 390:Drivers/STM32G4xx_HAL_Driver/Src/stm32g4xx_hal_rcc.c ****     {
 451              		.loc 1 390 0 discriminator 1
 452 0114 022A     		cmp	r2, #2
 453 0116 C2D1     		bne	.L43
 454              	.L44:
 393:Drivers/STM32G4xx_HAL_Driver/Src/stm32g4xx_hal_rcc.c ****       {
 455              		.loc 1 393 0
 456 0118 734B     		ldr	r3, .L137
 457              	.LVL54:
 458 011a 1B68     		ldr	r3, [r3]
 459 011c 13F4806F 		tst	r3, #1024
 460 0120 03D0     		beq	.L46
 393:Drivers/STM32G4xx_HAL_Driver/Src/stm32g4xx_hal_rcc.c ****       {
 461              		.loc 1 393 0 is_stmt 0 discriminator 1
 462 0122 E368     		ldr	r3, [r4, #12]
 463 0124 002B     		cmp	r3, #0
 464 0126 00F0CB81 		beq	.L90
 465              	.L46:
 401:Drivers/STM32G4xx_HAL_Driver/Src/stm32g4xx_hal_rcc.c **** 
 466              		.loc 1 401 0 is_stmt 1
 467 012a 6F4A     		ldr	r2, .L137
 468              	.LVL55:
 469 012c 5368     		ldr	r3, [r2, #4]
 470 012e 23F0FE43 		bic	r3, r3, #2130706432
 471 0132 2169     		ldr	r1, [r4, #16]
 472 0134 43EA0163 		orr	r3, r3, r1, lsl #24
 473 0138 5360     		str	r3, [r2, #4]
 404:Drivers/STM32G4xx_HAL_Driver/Src/stm32g4xx_hal_rcc.c ****         {
 474              		.loc 1 404 0
 475 013a 6C4B     		ldr	r3, .L137+4
 476 013c 1868     		ldr	r0, [r3]
 477 013e FFF7FEFF 		bl	HAL_InitTick
 478              	.LVL56:
 479 0142 0028     		cmp	r0, #0
 480 0144 40F0BE81 		bne	.L123
 481              	.L42:
 453:Drivers/STM32G4xx_HAL_Driver/Src/stm32g4xx_hal_rcc.c ****   {
 482              		.loc 1 453 0
 483 0148 2368     		ldr	r3, [r4]
 484 014a 13F0080F 		tst	r3, #8
 485 014e 4CD0     		beq	.L52
 459:Drivers/STM32G4xx_HAL_Driver/Src/stm32g4xx_hal_rcc.c ****     {
ARM GAS  C:\Users\82057\AppData\Local\Temp\ccODTTN9.s 			page 35


 486              		.loc 1 459 0
 487 0150 6369     		ldr	r3, [r4, #20]
 488 0152 9BB3     		cbz	r3, .L53
 462:Drivers/STM32G4xx_HAL_Driver/Src/stm32g4xx_hal_rcc.c **** 
 489              		.loc 1 462 0
 490 0154 644A     		ldr	r2, .L137
 491 0156 D2F89430 		ldr	r3, [r2, #148]
 492 015a 43F00103 		orr	r3, r3, #1
 493 015e C2F89430 		str	r3, [r2, #148]
 465:Drivers/STM32G4xx_HAL_Driver/Src/stm32g4xx_hal_rcc.c **** 
 494              		.loc 1 465 0
 495 0162 FFF7FEFF 		bl	HAL_GetTick
 496              	.LVL57:
 497 0166 0546     		mov	r5, r0
 498              	.LVL58:
 499              	.L54:
 468:Drivers/STM32G4xx_HAL_Driver/Src/stm32g4xx_hal_rcc.c ****       {
 500              		.loc 1 468 0
 501 0168 5F4B     		ldr	r3, .L137
 502 016a D3F89430 		ldr	r3, [r3, #148]
 503 016e 13F0020F 		tst	r3, #2
 504 0172 3AD1     		bne	.L52
 470:Drivers/STM32G4xx_HAL_Driver/Src/stm32g4xx_hal_rcc.c ****         {
 505              		.loc 1 470 0
 506 0174 FFF7FEFF 		bl	HAL_GetTick
 507              	.LVL59:
 508 0178 401B     		subs	r0, r0, r5
 509 017a 0228     		cmp	r0, #2
 510 017c F4D9     		bls	.L54
 472:Drivers/STM32G4xx_HAL_Driver/Src/stm32g4xx_hal_rcc.c ****         }
 511              		.loc 1 472 0
 512 017e 0320     		movs	r0, #3
 513 0180 A3E1     		b	.L29
 514              	.L122:
 431:Drivers/STM32G4xx_HAL_Driver/Src/stm32g4xx_hal_rcc.c ****       }
 515              		.loc 1 431 0
 516 0182 594A     		ldr	r2, .L137
 517 0184 5368     		ldr	r3, [r2, #4]
 518 0186 23F0FE43 		bic	r3, r3, #2130706432
 519 018a 2169     		ldr	r1, [r4, #16]
 520 018c 43EA0163 		orr	r3, r3, r1, lsl #24
 521 0190 5360     		str	r3, [r2, #4]
 522 0192 D9E7     		b	.L42
 523              	.LVL60:
 524              	.L47:
 436:Drivers/STM32G4xx_HAL_Driver/Src/stm32g4xx_hal_rcc.c **** 
 525              		.loc 1 436 0
 526 0194 544A     		ldr	r2, .L137
 527              	.LVL61:
 528 0196 1368     		ldr	r3, [r2]
 529 0198 23F48073 		bic	r3, r3, #256
 530 019c 1360     		str	r3, [r2]
 439:Drivers/STM32G4xx_HAL_Driver/Src/stm32g4xx_hal_rcc.c **** 
 531              		.loc 1 439 0
 532 019e FFF7FEFF 		bl	HAL_GetTick
 533              	.LVL62:
 534 01a2 0546     		mov	r5, r0
ARM GAS  C:\Users\82057\AppData\Local\Temp\ccODTTN9.s 			page 36


 535              	.LVL63:
 536              	.L50:
 442:Drivers/STM32G4xx_HAL_Driver/Src/stm32g4xx_hal_rcc.c ****         {
 537              		.loc 1 442 0
 538 01a4 504B     		ldr	r3, .L137
 539 01a6 1B68     		ldr	r3, [r3]
 540 01a8 13F4806F 		tst	r3, #1024
 541 01ac CCD0     		beq	.L42
 444:Drivers/STM32G4xx_HAL_Driver/Src/stm32g4xx_hal_rcc.c ****           {
 542              		.loc 1 444 0
 543 01ae FFF7FEFF 		bl	HAL_GetTick
 544              	.LVL64:
 545 01b2 401B     		subs	r0, r0, r5
 546 01b4 0228     		cmp	r0, #2
 547 01b6 F5D9     		bls	.L50
 446:Drivers/STM32G4xx_HAL_Driver/Src/stm32g4xx_hal_rcc.c ****           }
 548              		.loc 1 446 0
 549 01b8 0320     		movs	r0, #3
 550 01ba 86E1     		b	.L29
 551              	.LVL65:
 552              	.L53:
 479:Drivers/STM32G4xx_HAL_Driver/Src/stm32g4xx_hal_rcc.c **** 
 553              		.loc 1 479 0
 554 01bc 4A4A     		ldr	r2, .L137
 555 01be D2F89430 		ldr	r3, [r2, #148]
 556 01c2 23F00103 		bic	r3, r3, #1
 557 01c6 C2F89430 		str	r3, [r2, #148]
 482:Drivers/STM32G4xx_HAL_Driver/Src/stm32g4xx_hal_rcc.c **** 
 558              		.loc 1 482 0
 559 01ca FFF7FEFF 		bl	HAL_GetTick
 560              	.LVL66:
 561 01ce 0546     		mov	r5, r0
 562              	.LVL67:
 563              	.L56:
 485:Drivers/STM32G4xx_HAL_Driver/Src/stm32g4xx_hal_rcc.c ****       {
 564              		.loc 1 485 0
 565 01d0 454B     		ldr	r3, .L137
 566 01d2 D3F89430 		ldr	r3, [r3, #148]
 567 01d6 13F0020F 		tst	r3, #2
 568 01da 06D0     		beq	.L52
 487:Drivers/STM32G4xx_HAL_Driver/Src/stm32g4xx_hal_rcc.c ****         {
 569              		.loc 1 487 0
 570 01dc FFF7FEFF 		bl	HAL_GetTick
 571              	.LVL68:
 572 01e0 401B     		subs	r0, r0, r5
 573 01e2 0228     		cmp	r0, #2
 574 01e4 F4D9     		bls	.L56
 489:Drivers/STM32G4xx_HAL_Driver/Src/stm32g4xx_hal_rcc.c ****         }
 575              		.loc 1 489 0
 576 01e6 0320     		movs	r0, #3
 577 01e8 6FE1     		b	.L29
 578              	.LVL69:
 579              	.L52:
 495:Drivers/STM32G4xx_HAL_Driver/Src/stm32g4xx_hal_rcc.c ****   {
 580              		.loc 1 495 0
 581 01ea 2368     		ldr	r3, [r4]
 582 01ec 13F0040F 		tst	r3, #4
ARM GAS  C:\Users\82057\AppData\Local\Temp\ccODTTN9.s 			page 37


 583 01f0 00F08180 		beq	.L58
 584              	.LVL70:
 585              	.LBB2:
 504:Drivers/STM32G4xx_HAL_Driver/Src/stm32g4xx_hal_rcc.c ****     {
 586              		.loc 1 504 0
 587 01f4 3C4B     		ldr	r3, .L137
 588 01f6 9B6D     		ldr	r3, [r3, #88]
 589 01f8 13F0805F 		tst	r3, #268435456
 590 01fc 36D1     		bne	.L96
 591              	.LBB3:
 506:Drivers/STM32G4xx_HAL_Driver/Src/stm32g4xx_hal_rcc.c ****       pwrclkchanged = SET;
 592              		.loc 1 506 0
 593 01fe 3A4B     		ldr	r3, .L137
 594 0200 9A6D     		ldr	r2, [r3, #88]
 595 0202 42F08052 		orr	r2, r2, #268435456
 596 0206 9A65     		str	r2, [r3, #88]
 597 0208 9B6D     		ldr	r3, [r3, #88]
 598 020a 03F08053 		and	r3, r3, #268435456
 599 020e 0193     		str	r3, [sp, #4]
 600 0210 019B     		ldr	r3, [sp, #4]
 601              	.LVL71:
 602              	.LBE3:
 507:Drivers/STM32G4xx_HAL_Driver/Src/stm32g4xx_hal_rcc.c ****     }
 603              		.loc 1 507 0
 604 0212 0125     		movs	r5, #1
 605              	.LVL72:
 606              	.L59:
 510:Drivers/STM32G4xx_HAL_Driver/Src/stm32g4xx_hal_rcc.c ****     {
 607              		.loc 1 510 0
 608 0214 364B     		ldr	r3, .L137+8
 609 0216 1B68     		ldr	r3, [r3]
 610 0218 13F4807F 		tst	r3, #256
 611 021c 28D0     		beq	.L124
 612              	.L60:
 528:Drivers/STM32G4xx_HAL_Driver/Src/stm32g4xx_hal_rcc.c **** 
 613              		.loc 1 528 0
 614 021e A368     		ldr	r3, [r4, #8]
 615 0220 012B     		cmp	r3, #1
 616 0222 39D0     		beq	.L125
 528:Drivers/STM32G4xx_HAL_Driver/Src/stm32g4xx_hal_rcc.c **** 
 617              		.loc 1 528 0 is_stmt 0 discriminator 2
 618 0224 052B     		cmp	r3, #5
 619 0226 3FD0     		beq	.L126
 528:Drivers/STM32G4xx_HAL_Driver/Src/stm32g4xx_hal_rcc.c **** 
 620              		.loc 1 528 0 discriminator 4
 621 0228 2F4B     		ldr	r3, .L137
 622 022a D3F89020 		ldr	r2, [r3, #144]
 623 022e 22F00102 		bic	r2, r2, #1
 624 0232 C3F89020 		str	r2, [r3, #144]
 625 0236 D3F89020 		ldr	r2, [r3, #144]
 626 023a 22F00402 		bic	r2, r2, #4
 627 023e C3F89020 		str	r2, [r3, #144]
 628              	.L64:
 531:Drivers/STM32G4xx_HAL_Driver/Src/stm32g4xx_hal_rcc.c ****     {
 629              		.loc 1 531 0 is_stmt 1
 630 0242 A368     		ldr	r3, [r4, #8]
 631 0244 002B     		cmp	r3, #0
ARM GAS  C:\Users\82057\AppData\Local\Temp\ccODTTN9.s 			page 38


 632 0246 3DD0     		beq	.L66
 534:Drivers/STM32G4xx_HAL_Driver/Src/stm32g4xx_hal_rcc.c **** 
 633              		.loc 1 534 0
 634 0248 FFF7FEFF 		bl	HAL_GetTick
 635              	.LVL73:
 636 024c 0646     		mov	r6, r0
 637              	.LVL74:
 638              	.L67:
 537:Drivers/STM32G4xx_HAL_Driver/Src/stm32g4xx_hal_rcc.c ****       {
 639              		.loc 1 537 0
 640 024e 264B     		ldr	r3, .L137
 641 0250 D3F89030 		ldr	r3, [r3, #144]
 642 0254 13F0020F 		tst	r3, #2
 643 0258 4CD1     		bne	.L69
 539:Drivers/STM32G4xx_HAL_Driver/Src/stm32g4xx_hal_rcc.c ****         {
 644              		.loc 1 539 0
 645 025a FFF7FEFF 		bl	HAL_GetTick
 646              	.LVL75:
 647 025e 801B     		subs	r0, r0, r6
 648 0260 41F28833 		movw	r3, #5000
 649 0264 9842     		cmp	r0, r3
 650 0266 F2D9     		bls	.L67
 541:Drivers/STM32G4xx_HAL_Driver/Src/stm32g4xx_hal_rcc.c ****         }
 651              		.loc 1 541 0
 652 0268 0320     		movs	r0, #3
 653 026a 2EE1     		b	.L29
 654              	.LVL76:
 655              	.L96:
 497:Drivers/STM32G4xx_HAL_Driver/Src/stm32g4xx_hal_rcc.c **** 
 656              		.loc 1 497 0
 657 026c 0025     		movs	r5, #0
 658 026e D1E7     		b	.L59
 659              	.LVL77:
 660              	.L124:
 513:Drivers/STM32G4xx_HAL_Driver/Src/stm32g4xx_hal_rcc.c **** 
 661              		.loc 1 513 0
 662 0270 1F4A     		ldr	r2, .L137+8
 663 0272 1368     		ldr	r3, [r2]
 664 0274 43F48073 		orr	r3, r3, #256
 665 0278 1360     		str	r3, [r2]
 516:Drivers/STM32G4xx_HAL_Driver/Src/stm32g4xx_hal_rcc.c **** 
 666              		.loc 1 516 0
 667 027a FFF7FEFF 		bl	HAL_GetTick
 668              	.LVL78:
 669 027e 0646     		mov	r6, r0
 670              	.LVL79:
 671              	.L61:
 518:Drivers/STM32G4xx_HAL_Driver/Src/stm32g4xx_hal_rcc.c ****       {
 672              		.loc 1 518 0
 673 0280 1B4B     		ldr	r3, .L137+8
 674 0282 1B68     		ldr	r3, [r3]
 675 0284 13F4807F 		tst	r3, #256
 676 0288 C9D1     		bne	.L60
 520:Drivers/STM32G4xx_HAL_Driver/Src/stm32g4xx_hal_rcc.c ****         {
 677              		.loc 1 520 0
 678 028a FFF7FEFF 		bl	HAL_GetTick
 679              	.LVL80:
ARM GAS  C:\Users\82057\AppData\Local\Temp\ccODTTN9.s 			page 39


 680 028e 801B     		subs	r0, r0, r6
 681 0290 0228     		cmp	r0, #2
 682 0292 F5D9     		bls	.L61
 522:Drivers/STM32G4xx_HAL_Driver/Src/stm32g4xx_hal_rcc.c ****         }
 683              		.loc 1 522 0
 684 0294 0320     		movs	r0, #3
 685 0296 18E1     		b	.L29
 686              	.LVL81:
 687              	.L125:
 528:Drivers/STM32G4xx_HAL_Driver/Src/stm32g4xx_hal_rcc.c **** 
 688              		.loc 1 528 0 discriminator 1
 689 0298 134A     		ldr	r2, .L137
 690 029a D2F89030 		ldr	r3, [r2, #144]
 691 029e 43F00103 		orr	r3, r3, #1
 692 02a2 C2F89030 		str	r3, [r2, #144]
 693 02a6 CCE7     		b	.L64
 694              	.L126:
 528:Drivers/STM32G4xx_HAL_Driver/Src/stm32g4xx_hal_rcc.c **** 
 695              		.loc 1 528 0 is_stmt 0 discriminator 3
 696 02a8 0F4B     		ldr	r3, .L137
 697 02aa D3F89020 		ldr	r2, [r3, #144]
 698 02ae 42F00402 		orr	r2, r2, #4
 699 02b2 C3F89020 		str	r2, [r3, #144]
 700 02b6 D3F89020 		ldr	r2, [r3, #144]
 701 02ba 42F00102 		orr	r2, r2, #1
 702 02be C3F89020 		str	r2, [r3, #144]
 703 02c2 BEE7     		b	.L64
 704              	.L66:
 548:Drivers/STM32G4xx_HAL_Driver/Src/stm32g4xx_hal_rcc.c **** 
 705              		.loc 1 548 0 is_stmt 1
 706 02c4 FFF7FEFF 		bl	HAL_GetTick
 707              	.LVL82:
 708 02c8 0646     		mov	r6, r0
 709              	.LVL83:
 710              	.L70:
 551:Drivers/STM32G4xx_HAL_Driver/Src/stm32g4xx_hal_rcc.c ****       {
 711              		.loc 1 551 0
 712 02ca 074B     		ldr	r3, .L137
 713 02cc D3F89030 		ldr	r3, [r3, #144]
 714 02d0 13F0020F 		tst	r3, #2
 715 02d4 0ED0     		beq	.L69
 553:Drivers/STM32G4xx_HAL_Driver/Src/stm32g4xx_hal_rcc.c ****         {
 716              		.loc 1 553 0
 717 02d6 FFF7FEFF 		bl	HAL_GetTick
 718              	.LVL84:
 719 02da 801B     		subs	r0, r0, r6
 720 02dc 41F28833 		movw	r3, #5000
 721 02e0 9842     		cmp	r0, r3
 722 02e2 F2D9     		bls	.L70
 555:Drivers/STM32G4xx_HAL_Driver/Src/stm32g4xx_hal_rcc.c ****         }
 723              		.loc 1 555 0
 724 02e4 0320     		movs	r0, #3
 725 02e6 F0E0     		b	.L29
 726              	.L138:
 727              		.align	2
 728              	.L137:
 729 02e8 00100240 		.word	1073876992
ARM GAS  C:\Users\82057\AppData\Local\Temp\ccODTTN9.s 			page 40


 730 02ec 00000000 		.word	uwTickPrio
 731 02f0 00700040 		.word	1073770496
 732              	.L69:
 561:Drivers/STM32G4xx_HAL_Driver/Src/stm32g4xx_hal_rcc.c ****     {
 733              		.loc 1 561 0
 734 02f4 E5B9     		cbnz	r5, .L127
 735              	.LVL85:
 736              	.L58:
 737              	.LBE2:
 568:Drivers/STM32G4xx_HAL_Driver/Src/stm32g4xx_hal_rcc.c ****   {
 738              		.loc 1 568 0
 739 02f6 2368     		ldr	r3, [r4]
 740 02f8 13F0200F 		tst	r3, #32
 741 02fc 35D0     		beq	.L72
 574:Drivers/STM32G4xx_HAL_Driver/Src/stm32g4xx_hal_rcc.c ****     {
 742              		.loc 1 574 0
 743 02fe A369     		ldr	r3, [r4, #24]
 744 0300 E3B1     		cbz	r3, .L73
 577:Drivers/STM32G4xx_HAL_Driver/Src/stm32g4xx_hal_rcc.c **** 
 745              		.loc 1 577 0
 746 0302 754A     		ldr	r2, .L139
 747 0304 D2F89830 		ldr	r3, [r2, #152]
 748 0308 43F00103 		orr	r3, r3, #1
 749 030c C2F89830 		str	r3, [r2, #152]
 580:Drivers/STM32G4xx_HAL_Driver/Src/stm32g4xx_hal_rcc.c **** 
 750              		.loc 1 580 0
 751 0310 FFF7FEFF 		bl	HAL_GetTick
 752              	.LVL86:
 753 0314 0546     		mov	r5, r0
 754              	.LVL87:
 755              	.L74:
 583:Drivers/STM32G4xx_HAL_Driver/Src/stm32g4xx_hal_rcc.c ****       {
 756              		.loc 1 583 0
 757 0316 704B     		ldr	r3, .L139
 758 0318 D3F89830 		ldr	r3, [r3, #152]
 759 031c 13F0020F 		tst	r3, #2
 760 0320 23D1     		bne	.L72
 585:Drivers/STM32G4xx_HAL_Driver/Src/stm32g4xx_hal_rcc.c ****         {
 761              		.loc 1 585 0
 762 0322 FFF7FEFF 		bl	HAL_GetTick
 763              	.LVL88:
 764 0326 401B     		subs	r0, r0, r5
 765 0328 0228     		cmp	r0, #2
 766 032a F4D9     		bls	.L74
 587:Drivers/STM32G4xx_HAL_Driver/Src/stm32g4xx_hal_rcc.c ****         }
 767              		.loc 1 587 0
 768 032c 0320     		movs	r0, #3
 769 032e CCE0     		b	.L29
 770              	.LVL89:
 771              	.L127:
 772              	.LBB4:
 563:Drivers/STM32G4xx_HAL_Driver/Src/stm32g4xx_hal_rcc.c ****     }
 773              		.loc 1 563 0
 774 0330 694A     		ldr	r2, .L139
 775 0332 936D     		ldr	r3, [r2, #88]
 776 0334 23F08053 		bic	r3, r3, #268435456
 777 0338 9365     		str	r3, [r2, #88]
ARM GAS  C:\Users\82057\AppData\Local\Temp\ccODTTN9.s 			page 41


 778 033a DCE7     		b	.L58
 779              	.LVL90:
 780              	.L73:
 781              	.LBE4:
 594:Drivers/STM32G4xx_HAL_Driver/Src/stm32g4xx_hal_rcc.c **** 
 782              		.loc 1 594 0
 783 033c 664A     		ldr	r2, .L139
 784 033e D2F89830 		ldr	r3, [r2, #152]
 785 0342 23F00103 		bic	r3, r3, #1
 786 0346 C2F89830 		str	r3, [r2, #152]
 597:Drivers/STM32G4xx_HAL_Driver/Src/stm32g4xx_hal_rcc.c **** 
 787              		.loc 1 597 0
 788 034a FFF7FEFF 		bl	HAL_GetTick
 789              	.LVL91:
 790 034e 0546     		mov	r5, r0
 791              	.LVL92:
 792              	.L76:
 600:Drivers/STM32G4xx_HAL_Driver/Src/stm32g4xx_hal_rcc.c ****       {
 793              		.loc 1 600 0
 794 0350 614B     		ldr	r3, .L139
 795 0352 D3F89830 		ldr	r3, [r3, #152]
 796 0356 13F0020F 		tst	r3, #2
 797 035a 06D0     		beq	.L72
 602:Drivers/STM32G4xx_HAL_Driver/Src/stm32g4xx_hal_rcc.c ****         {
 798              		.loc 1 602 0
 799 035c FFF7FEFF 		bl	HAL_GetTick
 800              	.LVL93:
 801 0360 401B     		subs	r0, r0, r5
 802 0362 0228     		cmp	r0, #2
 803 0364 F4D9     		bls	.L76
 604:Drivers/STM32G4xx_HAL_Driver/Src/stm32g4xx_hal_rcc.c ****         }
 804              		.loc 1 604 0
 805 0366 0320     		movs	r0, #3
 806 0368 AFE0     		b	.L29
 807              	.LVL94:
 808              	.L72:
 614:Drivers/STM32G4xx_HAL_Driver/Src/stm32g4xx_hal_rcc.c ****   {
 809              		.loc 1 614 0
 810 036a E369     		ldr	r3, [r4, #28]
 811 036c 002B     		cmp	r3, #0
 812 036e 00F0AB80 		beq	.L102
 617:Drivers/STM32G4xx_HAL_Driver/Src/stm32g4xx_hal_rcc.c ****     {
 813              		.loc 1 617 0
 814 0372 594A     		ldr	r2, .L139
 815 0374 9268     		ldr	r2, [r2, #8]
 816 0376 02F00C02 		and	r2, r2, #12
 817 037a 0C2A     		cmp	r2, #12
 818 037c 64D0     		beq	.L78
 619:Drivers/STM32G4xx_HAL_Driver/Src/stm32g4xx_hal_rcc.c ****       {
 819              		.loc 1 619 0
 820 037e 022B     		cmp	r3, #2
 821 0380 13D0     		beq	.L128
 673:Drivers/STM32G4xx_HAL_Driver/Src/stm32g4xx_hal_rcc.c **** 
 822              		.loc 1 673 0
 823 0382 554A     		ldr	r2, .L139
 824 0384 1368     		ldr	r3, [r2]
 825 0386 23F08073 		bic	r3, r3, #16777216
ARM GAS  C:\Users\82057\AppData\Local\Temp\ccODTTN9.s 			page 42


 826 038a 1360     		str	r3, [r2]
 676:Drivers/STM32G4xx_HAL_Driver/Src/stm32g4xx_hal_rcc.c **** 
 827              		.loc 1 676 0
 828 038c FFF7FEFF 		bl	HAL_GetTick
 829              	.LVL95:
 830 0390 0446     		mov	r4, r0
 831              	.LVL96:
 832              	.L84:
 679:Drivers/STM32G4xx_HAL_Driver/Src/stm32g4xx_hal_rcc.c ****         {
 833              		.loc 1 679 0
 834 0392 514B     		ldr	r3, .L139
 835 0394 1B68     		ldr	r3, [r3]
 836 0396 13F0007F 		tst	r3, #33554432
 837 039a 4ED0     		beq	.L129
 681:Drivers/STM32G4xx_HAL_Driver/Src/stm32g4xx_hal_rcc.c ****           {
 838              		.loc 1 681 0
 839 039c FFF7FEFF 		bl	HAL_GetTick
 840              	.LVL97:
 841 03a0 001B     		subs	r0, r0, r4
 842 03a2 0228     		cmp	r0, #2
 843 03a4 F5D9     		bls	.L84
 683:Drivers/STM32G4xx_HAL_Driver/Src/stm32g4xx_hal_rcc.c ****           }
 844              		.loc 1 683 0
 845 03a6 0320     		movs	r0, #3
 846 03a8 8FE0     		b	.L29
 847              	.LVL98:
 848              	.L128:
 630:Drivers/STM32G4xx_HAL_Driver/Src/stm32g4xx_hal_rcc.c **** 
 849              		.loc 1 630 0
 850 03aa 4B4A     		ldr	r2, .L139
 851 03ac 1368     		ldr	r3, [r2]
 852 03ae 23F08073 		bic	r3, r3, #16777216
 853 03b2 1360     		str	r3, [r2]
 633:Drivers/STM32G4xx_HAL_Driver/Src/stm32g4xx_hal_rcc.c **** 
 854              		.loc 1 633 0
 855 03b4 FFF7FEFF 		bl	HAL_GetTick
 856              	.LVL99:
 857 03b8 0546     		mov	r5, r0
 858              	.LVL100:
 859              	.L80:
 636:Drivers/STM32G4xx_HAL_Driver/Src/stm32g4xx_hal_rcc.c ****         {
 860              		.loc 1 636 0
 861 03ba 474B     		ldr	r3, .L139
 862 03bc 1B68     		ldr	r3, [r3]
 863 03be 13F0007F 		tst	r3, #33554432
 864 03c2 06D0     		beq	.L130
 638:Drivers/STM32G4xx_HAL_Driver/Src/stm32g4xx_hal_rcc.c ****           {
 865              		.loc 1 638 0
 866 03c4 FFF7FEFF 		bl	HAL_GetTick
 867              	.LVL101:
 868 03c8 401B     		subs	r0, r0, r5
 869 03ca 0228     		cmp	r0, #2
 870 03cc F5D9     		bls	.L80
 640:Drivers/STM32G4xx_HAL_Driver/Src/stm32g4xx_hal_rcc.c ****           }
 871              		.loc 1 640 0
 872 03ce 0320     		movs	r0, #3
 873 03d0 7BE0     		b	.L29
ARM GAS  C:\Users\82057\AppData\Local\Temp\ccODTTN9.s 			page 43


 874              	.L130:
 645:Drivers/STM32G4xx_HAL_Driver/Src/stm32g4xx_hal_rcc.c ****                              RCC_OscInitStruct->PLL.PLLM,
 875              		.loc 1 645 0
 876 03d2 414A     		ldr	r2, .L139
 877 03d4 D368     		ldr	r3, [r2, #12]
 878 03d6 4149     		ldr	r1, .L139+4
 879 03d8 1940     		ands	r1, r1, r3
 880 03da 236A     		ldr	r3, [r4, #32]
 881 03dc 606A     		ldr	r0, [r4, #36]
 882 03de 0138     		subs	r0, r0, #1
 883 03e0 43EA0013 		orr	r3, r3, r0, lsl #4
 884 03e4 A06A     		ldr	r0, [r4, #40]
 885 03e6 43EA0023 		orr	r3, r3, r0, lsl #8
 886 03ea 206B     		ldr	r0, [r4, #48]
 887 03ec 4008     		lsrs	r0, r0, #1
 888 03ee 0138     		subs	r0, r0, #1
 889 03f0 43EA4053 		orr	r3, r3, r0, lsl #21
 890 03f4 606B     		ldr	r0, [r4, #52]
 891 03f6 4008     		lsrs	r0, r0, #1
 892 03f8 0138     		subs	r0, r0, #1
 893 03fa 43EA4063 		orr	r3, r3, r0, lsl #25
 894 03fe E06A     		ldr	r0, [r4, #44]
 895 0400 43EAC063 		orr	r3, r3, r0, lsl #27
 896 0404 0B43     		orrs	r3, r3, r1
 897 0406 D360     		str	r3, [r2, #12]
 653:Drivers/STM32G4xx_HAL_Driver/Src/stm32g4xx_hal_rcc.c **** 
 898              		.loc 1 653 0
 899 0408 1368     		ldr	r3, [r2]
 900 040a 43F08073 		orr	r3, r3, #16777216
 901 040e 1360     		str	r3, [r2]
 656:Drivers/STM32G4xx_HAL_Driver/Src/stm32g4xx_hal_rcc.c **** 
 902              		.loc 1 656 0
 903 0410 D368     		ldr	r3, [r2, #12]
 904 0412 43F08073 		orr	r3, r3, #16777216
 905 0416 D360     		str	r3, [r2, #12]
 659:Drivers/STM32G4xx_HAL_Driver/Src/stm32g4xx_hal_rcc.c **** 
 906              		.loc 1 659 0
 907 0418 FFF7FEFF 		bl	HAL_GetTick
 908              	.LVL102:
 909 041c 0446     		mov	r4, r0
 910              	.LVL103:
 911              	.L82:
 662:Drivers/STM32G4xx_HAL_Driver/Src/stm32g4xx_hal_rcc.c ****         {
 912              		.loc 1 662 0
 913 041e 2E4B     		ldr	r3, .L139
 914 0420 1B68     		ldr	r3, [r3]
 915 0422 13F0007F 		tst	r3, #33554432
 916 0426 06D1     		bne	.L131
 664:Drivers/STM32G4xx_HAL_Driver/Src/stm32g4xx_hal_rcc.c ****           {
 917              		.loc 1 664 0
 918 0428 FFF7FEFF 		bl	HAL_GetTick
 919              	.LVL104:
 920 042c 001B     		subs	r0, r0, r4
 921 042e 0228     		cmp	r0, #2
 922 0430 F5D9     		bls	.L82
 666:Drivers/STM32G4xx_HAL_Driver/Src/stm32g4xx_hal_rcc.c ****           }
 923              		.loc 1 666 0
ARM GAS  C:\Users\82057\AppData\Local\Temp\ccODTTN9.s 			page 44


 924 0432 0320     		movs	r0, #3
 925 0434 49E0     		b	.L29
 926              	.L131:
 715:Drivers/STM32G4xx_HAL_Driver/Src/stm32g4xx_hal_rcc.c **** }
 927              		.loc 1 715 0
 928 0436 0020     		movs	r0, #0
 929 0438 47E0     		b	.L29
 930              	.L129:
 688:Drivers/STM32G4xx_HAL_Driver/Src/stm32g4xx_hal_rcc.c ****       }
 931              		.loc 1 688 0
 932 043a 274A     		ldr	r2, .L139
 933 043c D168     		ldr	r1, [r2, #12]
 934 043e 284B     		ldr	r3, .L139+8
 935 0440 0B40     		ands	r3, r3, r1
 936 0442 D360     		str	r3, [r2, #12]
 715:Drivers/STM32G4xx_HAL_Driver/Src/stm32g4xx_hal_rcc.c **** }
 937              		.loc 1 715 0
 938 0444 0020     		movs	r0, #0
 939 0446 40E0     		b	.L29
 940              	.LVL105:
 941              	.L78:
 694:Drivers/STM32G4xx_HAL_Driver/Src/stm32g4xx_hal_rcc.c ****       {
 942              		.loc 1 694 0
 943 0448 012B     		cmp	r3, #1
 944 044a 40D0     		beq	.L106
 701:Drivers/STM32G4xx_HAL_Driver/Src/stm32g4xx_hal_rcc.c ****       if((READ_BIT(temp_pllckcfg, RCC_PLLCFGR_PLLSRC) != RCC_OscInitStruct->PLL.PLLSource) ||
 945              		.loc 1 701 0
 946 044c 224B     		ldr	r3, .L139
 947 044e DB68     		ldr	r3, [r3, #12]
 948              	.LVL106:
 702:Drivers/STM32G4xx_HAL_Driver/Src/stm32g4xx_hal_rcc.c ****          (READ_BIT(temp_pllckcfg, RCC_PLLCFGR_PLLM) != (((RCC_OscInitStruct->PLL.PLLM) - 1U) << RCC
 949              		.loc 1 702 0
 950 0450 03F00301 		and	r1, r3, #3
 951 0454 226A     		ldr	r2, [r4, #32]
 952 0456 9142     		cmp	r1, r2
 953 0458 01D0     		beq	.L132
 709:Drivers/STM32G4xx_HAL_Driver/Src/stm32g4xx_hal_rcc.c ****       }
 954              		.loc 1 709 0
 955 045a 0120     		movs	r0, #1
 956 045c 35E0     		b	.L29
 957              	.L132:
 703:Drivers/STM32G4xx_HAL_Driver/Src/stm32g4xx_hal_rcc.c ****          (READ_BIT(temp_pllckcfg, RCC_PLLCFGR_PLLN) != ((RCC_OscInitStruct->PLL.PLLN) << RCC_PLLCFG
 958              		.loc 1 703 0 discriminator 1
 959 045e 03F0F002 		and	r2, r3, #240
 960 0462 616A     		ldr	r1, [r4, #36]
 961 0464 0139     		subs	r1, r1, #1
 702:Drivers/STM32G4xx_HAL_Driver/Src/stm32g4xx_hal_rcc.c ****          (READ_BIT(temp_pllckcfg, RCC_PLLCFGR_PLLM) != (((RCC_OscInitStruct->PLL.PLLM) - 1U) << RCC
 962              		.loc 1 702 0 discriminator 1
 963 0466 B2EB011F 		cmp	r2, r1, lsl #4
 964 046a 01D0     		beq	.L133
 709:Drivers/STM32G4xx_HAL_Driver/Src/stm32g4xx_hal_rcc.c ****       }
 965              		.loc 1 709 0
 966 046c 0120     		movs	r0, #1
 967 046e 2CE0     		b	.L29
 968              	.L133:
 704:Drivers/STM32G4xx_HAL_Driver/Src/stm32g4xx_hal_rcc.c ****          (READ_BIT(temp_pllckcfg, RCC_PLLCFGR_PLLPDIV) != ((RCC_OscInitStruct->PLL.PLLP) << RCC_PLL
 969              		.loc 1 704 0
ARM GAS  C:\Users\82057\AppData\Local\Temp\ccODTTN9.s 			page 45


 970 0470 03F4FE42 		and	r2, r3, #32512
 971 0474 A16A     		ldr	r1, [r4, #40]
 703:Drivers/STM32G4xx_HAL_Driver/Src/stm32g4xx_hal_rcc.c ****          (READ_BIT(temp_pllckcfg, RCC_PLLCFGR_PLLN) != ((RCC_OscInitStruct->PLL.PLLN) << RCC_PLLCFG
 972              		.loc 1 703 0
 973 0476 B2EB012F 		cmp	r2, r1, lsl #8
 974 047a 01D0     		beq	.L134
 709:Drivers/STM32G4xx_HAL_Driver/Src/stm32g4xx_hal_rcc.c ****       }
 975              		.loc 1 709 0
 976 047c 0120     		movs	r0, #1
 977 047e 24E0     		b	.L29
 978              	.L134:
 705:Drivers/STM32G4xx_HAL_Driver/Src/stm32g4xx_hal_rcc.c ****          (READ_BIT(temp_pllckcfg, RCC_PLLCFGR_PLLQ) != ((((RCC_OscInitStruct->PLL.PLLQ) >> 1U) - 1U
 979              		.loc 1 705 0
 980 0480 03F07842 		and	r2, r3, #-134217728
 981 0484 E16A     		ldr	r1, [r4, #44]
 704:Drivers/STM32G4xx_HAL_Driver/Src/stm32g4xx_hal_rcc.c ****          (READ_BIT(temp_pllckcfg, RCC_PLLCFGR_PLLPDIV) != ((RCC_OscInitStruct->PLL.PLLP) << RCC_PLL
 982              		.loc 1 704 0
 983 0486 B2EBC16F 		cmp	r2, r1, lsl #27
 984 048a 01D0     		beq	.L135
 709:Drivers/STM32G4xx_HAL_Driver/Src/stm32g4xx_hal_rcc.c ****       }
 985              		.loc 1 709 0
 986 048c 0120     		movs	r0, #1
 987 048e 1CE0     		b	.L29
 988              	.L135:
 706:Drivers/STM32G4xx_HAL_Driver/Src/stm32g4xx_hal_rcc.c ****          (READ_BIT(temp_pllckcfg, RCC_PLLCFGR_PLLR) != ((((RCC_OscInitStruct->PLL.PLLR) >> 1U) - 1U
 989              		.loc 1 706 0
 990 0490 03F4C001 		and	r1, r3, #6291456
 991 0494 226B     		ldr	r2, [r4, #48]
 992 0496 5208     		lsrs	r2, r2, #1
 993 0498 013A     		subs	r2, r2, #1
 705:Drivers/STM32G4xx_HAL_Driver/Src/stm32g4xx_hal_rcc.c ****          (READ_BIT(temp_pllckcfg, RCC_PLLCFGR_PLLQ) != ((((RCC_OscInitStruct->PLL.PLLQ) >> 1U) - 1U
 994              		.loc 1 705 0
 995 049a B1EB425F 		cmp	r1, r2, lsl #21
 996 049e 01D0     		beq	.L136
 709:Drivers/STM32G4xx_HAL_Driver/Src/stm32g4xx_hal_rcc.c ****       }
 997              		.loc 1 709 0
 998 04a0 0120     		movs	r0, #1
 999 04a2 12E0     		b	.L29
 1000              	.L136:
 707:Drivers/STM32G4xx_HAL_Driver/Src/stm32g4xx_hal_rcc.c ****       {
 1001              		.loc 1 707 0
 1002 04a4 03F0C063 		and	r3, r3, #100663296
 1003              	.LVL107:
 1004 04a8 626B     		ldr	r2, [r4, #52]
 1005 04aa 5208     		lsrs	r2, r2, #1
 1006 04ac 013A     		subs	r2, r2, #1
 706:Drivers/STM32G4xx_HAL_Driver/Src/stm32g4xx_hal_rcc.c ****          (READ_BIT(temp_pllckcfg, RCC_PLLCFGR_PLLR) != ((((RCC_OscInitStruct->PLL.PLLR) >> 1U) - 1U
 1007              		.loc 1 706 0
 1008 04ae B3EB426F 		cmp	r3, r2, lsl #25
 1009 04b2 0ED0     		beq	.L112
 709:Drivers/STM32G4xx_HAL_Driver/Src/stm32g4xx_hal_rcc.c ****       }
 1010              		.loc 1 709 0
 1011 04b4 0120     		movs	r0, #1
 1012 04b6 08E0     		b	.L29
 1013              	.LVL108:
 1014              	.L86:
 1015              	.LCFI3:
ARM GAS  C:\Users\82057\AppData\Local\Temp\ccODTTN9.s 			page 46


 1016              		.cfi_def_cfa_offset 0
 1017              		.cfi_restore 4
 1018              		.cfi_restore 5
 1019              		.cfi_restore 6
 1020              		.cfi_restore 14
 321:Drivers/STM32G4xx_HAL_Driver/Src/stm32g4xx_hal_rcc.c ****   }
 1021              		.loc 1 321 0
 1022 04b8 0120     		movs	r0, #1
 1023              	.LVL109:
 716:Drivers/STM32G4xx_HAL_Driver/Src/stm32g4xx_hal_rcc.c **** 
 1024              		.loc 1 716 0
 1025 04ba 7047     		bx	lr
 1026              	.LVL110:
 1027              	.L120:
 1028              	.LCFI4:
 1029              		.cfi_def_cfa_offset 24
 1030              		.cfi_offset 4, -16
 1031              		.cfi_offset 5, -12
 1032              		.cfi_offset 6, -8
 1033              		.cfi_offset 14, -4
 341:Drivers/STM32G4xx_HAL_Driver/Src/stm32g4xx_hal_rcc.c ****       }
 1034              		.loc 1 341 0
 1035 04bc 0120     		movs	r0, #1
 1036              	.LVL111:
 1037 04be 04E0     		b	.L29
 1038              	.L90:
 395:Drivers/STM32G4xx_HAL_Driver/Src/stm32g4xx_hal_rcc.c ****       }
 1039              		.loc 1 395 0
 1040 04c0 0120     		movs	r0, #1
 1041 04c2 02E0     		b	.L29
 1042              	.LVL112:
 1043              	.L123:
 406:Drivers/STM32G4xx_HAL_Driver/Src/stm32g4xx_hal_rcc.c ****         }
 1044              		.loc 1 406 0
 1045 04c4 0120     		movs	r0, #1
 1046 04c6 00E0     		b	.L29
 1047              	.L102:
 715:Drivers/STM32G4xx_HAL_Driver/Src/stm32g4xx_hal_rcc.c **** }
 1048              		.loc 1 715 0
 1049 04c8 0020     		movs	r0, #0
 1050              	.LVL113:
 1051              	.L29:
 716:Drivers/STM32G4xx_HAL_Driver/Src/stm32g4xx_hal_rcc.c **** 
 1052              		.loc 1 716 0
 1053 04ca 02B0     		add	sp, sp, #8
 1054              	.LCFI5:
 1055              		.cfi_remember_state
 1056              		.cfi_def_cfa_offset 16
 1057              		@ sp needed
 1058 04cc 70BD     		pop	{r4, r5, r6, pc}
 1059              	.LVL114:
 1060              	.L106:
 1061              	.LCFI6:
 1062              		.cfi_restore_state
 696:Drivers/STM32G4xx_HAL_Driver/Src/stm32g4xx_hal_rcc.c ****       }
 1063              		.loc 1 696 0
 1064 04ce 0120     		movs	r0, #1
ARM GAS  C:\Users\82057\AppData\Local\Temp\ccODTTN9.s 			page 47


 1065 04d0 FBE7     		b	.L29
 1066              	.L112:
 715:Drivers/STM32G4xx_HAL_Driver/Src/stm32g4xx_hal_rcc.c **** }
 1067              		.loc 1 715 0
 1068 04d2 0020     		movs	r0, #0
 1069 04d4 F9E7     		b	.L29
 1070              	.L140:
 1071 04d6 00BF     		.align	2
 1072              	.L139:
 1073 04d8 00100240 		.word	1073876992
 1074 04dc 0C809F01 		.word	27230220
 1075 04e0 FCFFEEFE 		.word	-17891332
 1076              		.cfi_endproc
 1077              	.LFE330:
 1079              		.section	.text.HAL_RCC_MCOConfig,"ax",%progbits
 1080              		.align	1
 1081              		.global	HAL_RCC_MCOConfig
 1082              		.syntax unified
 1083              		.thumb
 1084              		.thumb_func
 1085              		.fpu fpv4-sp-d16
 1087              	HAL_RCC_MCOConfig:
 1088              	.LFB332:
 995:Drivers/STM32G4xx_HAL_Driver/Src/stm32g4xx_hal_rcc.c ****   GPIO_InitTypeDef gpio_initstruct;
 1089              		.loc 1 995 0
 1090              		.cfi_startproc
 1091              		@ args = 0, pretend = 0, frame = 24
 1092              		@ frame_needed = 0, uses_anonymous_args = 0
 1093              	.LVL115:
 1094 0000 F0B5     		push	{r4, r5, r6, r7, lr}
 1095              	.LCFI7:
 1096              		.cfi_def_cfa_offset 20
 1097              		.cfi_offset 4, -20
 1098              		.cfi_offset 5, -16
 1099              		.cfi_offset 6, -12
 1100              		.cfi_offset 7, -8
 1101              		.cfi_offset 14, -4
 1102 0002 87B0     		sub	sp, sp, #28
 1103              	.LCFI8:
 1104              		.cfi_def_cfa_offset 48
 1105 0004 0C46     		mov	r4, r1
 1106 0006 1646     		mov	r6, r2
1005:Drivers/STM32G4xx_HAL_Driver/Src/stm32g4xx_hal_rcc.c ****   gpio_initstruct.Speed     = GPIO_SPEED_FREQ_VERY_HIGH;
 1107              		.loc 1 1005 0
 1108 0008 0223     		movs	r3, #2
 1109 000a 0293     		str	r3, [sp, #8]
1006:Drivers/STM32G4xx_HAL_Driver/Src/stm32g4xx_hal_rcc.c ****   gpio_initstruct.Pull      = GPIO_NOPULL;
 1110              		.loc 1 1006 0
 1111 000c 0323     		movs	r3, #3
 1112 000e 0493     		str	r3, [sp, #16]
1007:Drivers/STM32G4xx_HAL_Driver/Src/stm32g4xx_hal_rcc.c **** 
 1113              		.loc 1 1007 0
 1114 0010 0023     		movs	r3, #0
 1115 0012 0393     		str	r3, [sp, #12]
1010:Drivers/STM32G4xx_HAL_Driver/Src/stm32g4xx_hal_rcc.c **** 
 1116              		.loc 1 1010 0
 1117 0014 00F08055 		and	r5, r0, #268435456
ARM GAS  C:\Users\82057\AppData\Local\Temp\ccODTTN9.s 			page 48


 1118              	.LVL116:
1013:Drivers/STM32G4xx_HAL_Driver/Src/stm32g4xx_hal_rcc.c **** 
 1119              		.loc 1 1013 0
 1120 0018 C0F30347 		ubfx	r7, r0, #16, #4
 1121 001c 07F5901C 		add	ip, r7, #1179648
 1122              	.LVL117:
1017:Drivers/STM32G4xx_HAL_Driver/Src/stm32g4xx_hal_rcc.c **** 
 1123              		.loc 1 1017 0
 1124 0020 0C49     		ldr	r1, .L144
 1125              	.LVL118:
 1126 0022 CB6C     		ldr	r3, [r1, #76]
 1127 0024 0122     		movs	r2, #1
 1128              	.LVL119:
 1129 0026 BA40     		lsls	r2, r2, r7
 1130 0028 1343     		orrs	r3, r3, r2
 1131 002a CB64     		str	r3, [r1, #76]
1020:Drivers/STM32G4xx_HAL_Driver/Src/stm32g4xx_hal_rcc.c ****   gpio_initstruct.Alternate = RCC_GET_MCO_GPIO_AF(RCC_MCOx);
 1132              		.loc 1 1020 0
 1133 002c 83B2     		uxth	r3, r0
 1134 002e 0193     		str	r3, [sp, #4]
1021:Drivers/STM32G4xx_HAL_Driver/Src/stm32g4xx_hal_rcc.c ****   HAL_GPIO_Init(mco_gpio_port, &gpio_initstruct);
 1135              		.loc 1 1021 0
 1136 0030 C0F30750 		ubfx	r0, r0, #20, #8
 1137              	.LVL120:
 1138 0034 0590     		str	r0, [sp, #20]
1022:Drivers/STM32G4xx_HAL_Driver/Src/stm32g4xx_hal_rcc.c **** 
 1139              		.loc 1 1022 0
 1140 0036 01A9     		add	r1, sp, #4
 1141 0038 4FEA8C20 		lsl	r0, ip, #10
 1142              	.LVL121:
 1143 003c FFF7FEFF 		bl	HAL_GPIO_Init
 1144              	.LVL122:
1024:Drivers/STM32G4xx_HAL_Driver/Src/stm32g4xx_hal_rcc.c ****   {
 1145              		.loc 1 1024 0
 1146 0040 35B9     		cbnz	r5, .L141
1029:Drivers/STM32G4xx_HAL_Driver/Src/stm32g4xx_hal_rcc.c ****   }
 1147              		.loc 1 1029 0
 1148 0042 044A     		ldr	r2, .L144
 1149 0044 9368     		ldr	r3, [r2, #8]
 1150 0046 23F0FE43 		bic	r3, r3, #2130706432
 1151 004a 3443     		orrs	r4, r4, r6
 1152              	.LVL123:
 1153 004c 1C43     		orrs	r4, r4, r3
 1154 004e 9460     		str	r4, [r2, #8]
 1155              	.L141:
1031:Drivers/STM32G4xx_HAL_Driver/Src/stm32g4xx_hal_rcc.c **** 
 1156              		.loc 1 1031 0
 1157 0050 07B0     		add	sp, sp, #28
 1158              	.LCFI9:
 1159              		.cfi_def_cfa_offset 20
 1160              		@ sp needed
 1161 0052 F0BD     		pop	{r4, r5, r6, r7, pc}
 1162              	.LVL124:
 1163              	.L145:
 1164              		.align	2
 1165              	.L144:
 1166 0054 00100240 		.word	1073876992
ARM GAS  C:\Users\82057\AppData\Local\Temp\ccODTTN9.s 			page 49


 1167              		.cfi_endproc
 1168              	.LFE332:
 1170              		.section	.text.HAL_RCC_GetSysClockFreq,"ax",%progbits
 1171              		.align	1
 1172              		.global	HAL_RCC_GetSysClockFreq
 1173              		.syntax unified
 1174              		.thumb
 1175              		.thumb_func
 1176              		.fpu fpv4-sp-d16
 1178              	HAL_RCC_GetSysClockFreq:
 1179              	.LFB333:
1064:Drivers/STM32G4xx_HAL_Driver/Src/stm32g4xx_hal_rcc.c ****   uint32_t pllvco, pllsource, pllr, pllm;
 1180              		.loc 1 1064 0
 1181              		.cfi_startproc
 1182              		@ args = 0, pretend = 0, frame = 0
 1183              		@ frame_needed = 0, uses_anonymous_args = 0
 1184              		@ link register save eliminated.
1068:Drivers/STM32G4xx_HAL_Driver/Src/stm32g4xx_hal_rcc.c ****   {
 1185              		.loc 1 1068 0
 1186 0000 1E4B     		ldr	r3, .L156
 1187 0002 9B68     		ldr	r3, [r3, #8]
 1188 0004 03F00C03 		and	r3, r3, #12
 1189 0008 042B     		cmp	r3, #4
 1190 000a 33D0     		beq	.L151
1073:Drivers/STM32G4xx_HAL_Driver/Src/stm32g4xx_hal_rcc.c ****   {
 1191              		.loc 1 1073 0
 1192 000c 1B4B     		ldr	r3, .L156
 1193 000e 9B68     		ldr	r3, [r3, #8]
 1194 0010 03F00C03 		and	r3, r3, #12
 1195 0014 082B     		cmp	r3, #8
 1196 0016 2FD0     		beq	.L152
1078:Drivers/STM32G4xx_HAL_Driver/Src/stm32g4xx_hal_rcc.c ****   {
 1197              		.loc 1 1078 0
 1198 0018 184B     		ldr	r3, .L156
 1199 001a 9B68     		ldr	r3, [r3, #8]
 1200 001c 03F00C03 		and	r3, r3, #12
 1201 0020 0C2B     		cmp	r3, #12
 1202 0022 01D0     		beq	.L155
1104:Drivers/STM32G4xx_HAL_Driver/Src/stm32g4xx_hal_rcc.c ****   }
 1203              		.loc 1 1104 0
 1204 0024 0020     		movs	r0, #0
 1205              	.LVL125:
1108:Drivers/STM32G4xx_HAL_Driver/Src/stm32g4xx_hal_rcc.c **** 
 1206              		.loc 1 1108 0
 1207 0026 7047     		bx	lr
 1208              	.LVL126:
 1209              	.L155:
1085:Drivers/STM32G4xx_HAL_Driver/Src/stm32g4xx_hal_rcc.c ****     pllm = (READ_BIT(RCC->PLLCFGR, RCC_PLLCFGR_PLLM) >> RCC_PLLCFGR_PLLM_Pos) + 1U ;
 1210              		.loc 1 1085 0
 1211 0028 144B     		ldr	r3, .L156
 1212 002a DA68     		ldr	r2, [r3, #12]
 1213 002c 02F00302 		and	r2, r2, #3
 1214              	.LVL127:
1086:Drivers/STM32G4xx_HAL_Driver/Src/stm32g4xx_hal_rcc.c **** 
 1215              		.loc 1 1086 0
 1216 0030 DB68     		ldr	r3, [r3, #12]
 1217 0032 C3F30313 		ubfx	r3, r3, #4, #4
ARM GAS  C:\Users\82057\AppData\Local\Temp\ccODTTN9.s 			page 50


 1218 0036 0133     		adds	r3, r3, #1
 1219              	.LVL128:
1088:Drivers/STM32G4xx_HAL_Driver/Src/stm32g4xx_hal_rcc.c ****     {
 1220              		.loc 1 1088 0
 1221 0038 032A     		cmp	r2, #3
 1222 003a 11D1     		bne	.L154
1091:Drivers/STM32G4xx_HAL_Driver/Src/stm32g4xx_hal_rcc.c ****       break;
 1223              		.loc 1 1091 0
 1224 003c 1048     		ldr	r0, .L156+4
 1225 003e B0FBF3F3 		udiv	r3, r0, r3
 1226              	.LVL129:
 1227 0042 0E4A     		ldr	r2, .L156
 1228              	.LVL130:
 1229 0044 D068     		ldr	r0, [r2, #12]
 1230 0046 C0F30620 		ubfx	r0, r0, #8, #7
 1231 004a 00FB03F0 		mul	r0, r0, r3
 1232              	.LVL131:
 1233              	.L150:
1099:Drivers/STM32G4xx_HAL_Driver/Src/stm32g4xx_hal_rcc.c ****     sysclockfreq = pllvco/pllr;
 1234              		.loc 1 1099 0
 1235 004e 0B4B     		ldr	r3, .L156
 1236 0050 DB68     		ldr	r3, [r3, #12]
 1237 0052 C3F34163 		ubfx	r3, r3, #25, #2
 1238 0056 0133     		adds	r3, r3, #1
 1239 0058 5B00     		lsls	r3, r3, #1
 1240              	.LVL132:
1100:Drivers/STM32G4xx_HAL_Driver/Src/stm32g4xx_hal_rcc.c ****   }
 1241              		.loc 1 1100 0
 1242 005a B0FBF3F0 		udiv	r0, r0, r3
 1243              	.LVL133:
 1244 005e 7047     		bx	lr
 1245              	.LVL134:
 1246              	.L154:
1096:Drivers/STM32G4xx_HAL_Driver/Src/stm32g4xx_hal_rcc.c ****       break;
 1247              		.loc 1 1096 0
 1248 0060 0848     		ldr	r0, .L156+8
 1249 0062 B0FBF3F3 		udiv	r3, r0, r3
 1250              	.LVL135:
 1251 0066 054A     		ldr	r2, .L156
 1252              	.LVL136:
 1253 0068 D068     		ldr	r0, [r2, #12]
 1254 006a C0F30620 		ubfx	r0, r0, #8, #7
 1255 006e 00FB03F0 		mul	r0, r0, r3
 1256              	.LVL137:
1097:Drivers/STM32G4xx_HAL_Driver/Src/stm32g4xx_hal_rcc.c ****     }
 1257              		.loc 1 1097 0
 1258 0072 ECE7     		b	.L150
 1259              	.LVL138:
 1260              	.L151:
1071:Drivers/STM32G4xx_HAL_Driver/Src/stm32g4xx_hal_rcc.c ****   }
 1261              		.loc 1 1071 0
 1262 0074 0348     		ldr	r0, .L156+8
 1263 0076 7047     		bx	lr
 1264              	.L152:
1076:Drivers/STM32G4xx_HAL_Driver/Src/stm32g4xx_hal_rcc.c ****   }
 1265              		.loc 1 1076 0
 1266 0078 0148     		ldr	r0, .L156+4
ARM GAS  C:\Users\82057\AppData\Local\Temp\ccODTTN9.s 			page 51


 1267 007a 7047     		bx	lr
 1268              	.L157:
 1269              		.align	2
 1270              	.L156:
 1271 007c 00100240 		.word	1073876992
 1272 0080 00127A00 		.word	8000000
 1273 0084 0024F400 		.word	16000000
 1274              		.cfi_endproc
 1275              	.LFE333:
 1277              		.section	.text.HAL_RCC_ClockConfig,"ax",%progbits
 1278              		.align	1
 1279              		.global	HAL_RCC_ClockConfig
 1280              		.syntax unified
 1281              		.thumb
 1282              		.thumb_func
 1283              		.fpu fpv4-sp-d16
 1285              	HAL_RCC_ClockConfig:
 1286              	.LFB331:
 767:Drivers/STM32G4xx_HAL_Driver/Src/stm32g4xx_hal_rcc.c ****   uint32_t tickstart;
 1287              		.loc 1 767 0
 1288              		.cfi_startproc
 1289              		@ args = 0, pretend = 0, frame = 0
 1290              		@ frame_needed = 0, uses_anonymous_args = 0
 1291              	.LVL139:
 773:Drivers/STM32G4xx_HAL_Driver/Src/stm32g4xx_hal_rcc.c ****   {
 1292              		.loc 1 773 0
 1293 0000 0028     		cmp	r0, #0
 1294 0002 00F0EA80 		beq	.L178
 767:Drivers/STM32G4xx_HAL_Driver/Src/stm32g4xx_hal_rcc.c ****   uint32_t tickstart;
 1295              		.loc 1 767 0
 1296 0006 F8B5     		push	{r3, r4, r5, r6, r7, lr}
 1297              	.LCFI10:
 1298              		.cfi_def_cfa_offset 24
 1299              		.cfi_offset 3, -24
 1300              		.cfi_offset 4, -20
 1301              		.cfi_offset 5, -16
 1302              		.cfi_offset 6, -12
 1303              		.cfi_offset 7, -8
 1304              		.cfi_offset 14, -4
 1305 0008 0446     		mov	r4, r0
 787:Drivers/STM32G4xx_HAL_Driver/Src/stm32g4xx_hal_rcc.c ****   {
 1306              		.loc 1 787 0
 1307 000a 764B     		ldr	r3, .L198
 1308 000c 1B68     		ldr	r3, [r3]
 1309 000e 03F00F03 		and	r3, r3, #15
 1310 0012 8B42     		cmp	r3, r1
 1311 0014 0CD2     		bcs	.L160
 790:Drivers/STM32G4xx_HAL_Driver/Src/stm32g4xx_hal_rcc.c **** 
 1312              		.loc 1 790 0
 1313 0016 734A     		ldr	r2, .L198
 1314 0018 1368     		ldr	r3, [r2]
 1315 001a 23F00F03 		bic	r3, r3, #15
 1316 001e 0B43     		orrs	r3, r3, r1
 1317 0020 1360     		str	r3, [r2]
 794:Drivers/STM32G4xx_HAL_Driver/Src/stm32g4xx_hal_rcc.c ****     {
 1318              		.loc 1 794 0
 1319 0022 1368     		ldr	r3, [r2]
ARM GAS  C:\Users\82057\AppData\Local\Temp\ccODTTN9.s 			page 52


 1320 0024 03F00F03 		and	r3, r3, #15
 1321 0028 8B42     		cmp	r3, r1
 1322 002a 01D0     		beq	.L160
 796:Drivers/STM32G4xx_HAL_Driver/Src/stm32g4xx_hal_rcc.c ****     }
 1323              		.loc 1 796 0
 1324 002c 0120     		movs	r0, #1
 1325              	.LVL140:
 1326 002e B3E0     		b	.L159
 1327              	.LVL141:
 1328              	.L160:
 1329 0030 0D46     		mov	r5, r1
 801:Drivers/STM32G4xx_HAL_Driver/Src/stm32g4xx_hal_rcc.c ****   {
 1330              		.loc 1 801 0
 1331 0032 2368     		ldr	r3, [r4]
 1332 0034 13F0010F 		tst	r3, #1
 1333 0038 61D0     		beq	.L180
 806:Drivers/STM32G4xx_HAL_Driver/Src/stm32g4xx_hal_rcc.c ****     {
 1334              		.loc 1 806 0
 1335 003a 6368     		ldr	r3, [r4, #4]
 1336 003c 032B     		cmp	r3, #3
 1337 003e 15D0     		beq	.L194
 832:Drivers/STM32G4xx_HAL_Driver/Src/stm32g4xx_hal_rcc.c ****       {
 1338              		.loc 1 832 0
 1339 0040 022B     		cmp	r3, #2
 1340 0042 33D0     		beq	.L195
 844:Drivers/STM32G4xx_HAL_Driver/Src/stm32g4xx_hal_rcc.c ****         {
 1341              		.loc 1 844 0
 1342 0044 684B     		ldr	r3, .L198+4
 1343 0046 1B68     		ldr	r3, [r3]
 1344 0048 13F4806F 		tst	r3, #1024
 1345 004c 00F0C780 		beq	.L186
 1346              	.L166:
 850:Drivers/STM32G4xx_HAL_Driver/Src/stm32g4xx_hal_rcc.c **** 
 1347              		.loc 1 850 0
 1348 0050 FFF7FEFF 		bl	HAL_RCC_GetSysClockFreq
 1349              	.LVL142:
 853:Drivers/STM32G4xx_HAL_Driver/Src/stm32g4xx_hal_rcc.c ****       {
 1350              		.loc 1 853 0
 1351 0054 654B     		ldr	r3, .L198+8
 1352 0056 9842     		cmp	r0, r3
 1353 0058 35D9     		bls	.L187
 855:Drivers/STM32G4xx_HAL_Driver/Src/stm32g4xx_hal_rcc.c ****         hpre = RCC_SYSCLK_DIV2;
 1354              		.loc 1 855 0
 1355 005a 634A     		ldr	r2, .L198+4
 1356 005c 9368     		ldr	r3, [r2, #8]
 1357 005e 23F0F003 		bic	r3, r3, #240
 1358 0062 43F08003 		orr	r3, r3, #128
 1359 0066 9360     		str	r3, [r2, #8]
 1360              	.LVL143:
 856:Drivers/STM32G4xx_HAL_Driver/Src/stm32g4xx_hal_rcc.c ****       }
 1361              		.loc 1 856 0
 1362 0068 8027     		movs	r7, #128
 1363 006a 2DE0     		b	.L163
 1364              	.LVL144:
 1365              	.L194:
 809:Drivers/STM32G4xx_HAL_Driver/Src/stm32g4xx_hal_rcc.c ****       {
 1366              		.loc 1 809 0
ARM GAS  C:\Users\82057\AppData\Local\Temp\ccODTTN9.s 			page 53


 1367 006c 5E4B     		ldr	r3, .L198+4
 1368 006e 1B68     		ldr	r3, [r3]
 1369 0070 13F0007F 		tst	r3, #33554432
 1370 0074 01D1     		bne	.L196
 811:Drivers/STM32G4xx_HAL_Driver/Src/stm32g4xx_hal_rcc.c ****       }
 1371              		.loc 1 811 0
 1372 0076 0120     		movs	r0, #1
 1373              	.LVL145:
 1374 0078 8EE0     		b	.L159
 1375              	.LVL146:
 1376              	.L196:
 815:Drivers/STM32G4xx_HAL_Driver/Src/stm32g4xx_hal_rcc.c **** 
 1377              		.loc 1 815 0
 1378 007a FFF7FEFF 		bl	RCC_GetSysClockFreqFromPLLSource
 1379              	.LVL147:
 818:Drivers/STM32G4xx_HAL_Driver/Src/stm32g4xx_hal_rcc.c ****       {
 1380              		.loc 1 818 0
 1381 007e 5B4B     		ldr	r3, .L198+8
 1382 0080 9842     		cmp	r0, r3
 1383 0082 1AD9     		bls	.L182
 820:Drivers/STM32G4xx_HAL_Driver/Src/stm32g4xx_hal_rcc.c ****             (((((RCC_ClkInitStruct->ClockType) & RCC_CLOCKTYPE_HCLK) == RCC_CLOCKTYPE_HCLK) &&
 1384              		.loc 1 820 0
 1385 0084 584B     		ldr	r3, .L198+4
 1386 0086 9B68     		ldr	r3, [r3, #8]
 1387 0088 13F0F00F 		tst	r3, #240
 1388 008c 05D0     		beq	.L164
 821:Drivers/STM32G4xx_HAL_Driver/Src/stm32g4xx_hal_rcc.c ****               (RCC_ClkInitStruct->AHBCLKDivider == RCC_SYSCLK_DIV1))))
 1389              		.loc 1 821 0 discriminator 1
 1390 008e 2368     		ldr	r3, [r4]
 820:Drivers/STM32G4xx_HAL_Driver/Src/stm32g4xx_hal_rcc.c ****             (((((RCC_ClkInitStruct->ClockType) & RCC_CLOCKTYPE_HCLK) == RCC_CLOCKTYPE_HCLK) &&
 1391              		.loc 1 820 0 discriminator 1
 1392 0090 13F0020F 		tst	r3, #2
 1393 0094 13D0     		beq	.L183
 822:Drivers/STM32G4xx_HAL_Driver/Src/stm32g4xx_hal_rcc.c ****         {
 1394              		.loc 1 822 0
 1395 0096 A368     		ldr	r3, [r4, #8]
 821:Drivers/STM32G4xx_HAL_Driver/Src/stm32g4xx_hal_rcc.c ****               (RCC_ClkInitStruct->AHBCLKDivider == RCC_SYSCLK_DIV1))))
 1396              		.loc 1 821 0
 1397 0098 9BB9     		cbnz	r3, .L184
 1398              	.L164:
 824:Drivers/STM32G4xx_HAL_Driver/Src/stm32g4xx_hal_rcc.c ****           hpre = RCC_SYSCLK_DIV2;
 1399              		.loc 1 824 0
 1400 009a 534A     		ldr	r2, .L198+4
 1401 009c 9368     		ldr	r3, [r2, #8]
 1402 009e 23F0F003 		bic	r3, r3, #240
 1403 00a2 43F08003 		orr	r3, r3, #128
 1404 00a6 9360     		str	r3, [r2, #8]
 1405              	.LVL148:
 825:Drivers/STM32G4xx_HAL_Driver/Src/stm32g4xx_hal_rcc.c ****         }
 1406              		.loc 1 825 0
 1407 00a8 8027     		movs	r7, #128
 1408 00aa 0DE0     		b	.L163
 1409              	.LVL149:
 1410              	.L195:
 835:Drivers/STM32G4xx_HAL_Driver/Src/stm32g4xx_hal_rcc.c ****         {
 1411              		.loc 1 835 0
 1412 00ac 4E4B     		ldr	r3, .L198+4
ARM GAS  C:\Users\82057\AppData\Local\Temp\ccODTTN9.s 			page 54


 1413 00ae 1B68     		ldr	r3, [r3]
 1414 00b0 13F4003F 		tst	r3, #131072
 1415 00b4 CCD1     		bne	.L166
 837:Drivers/STM32G4xx_HAL_Driver/Src/stm32g4xx_hal_rcc.c ****         }
 1416              		.loc 1 837 0
 1417 00b6 0120     		movs	r0, #1
 1418              	.LVL150:
 1419 00b8 6EE0     		b	.L159
 1420              	.LVL151:
 1421              	.L182:
 770:Drivers/STM32G4xx_HAL_Driver/Src/stm32g4xx_hal_rcc.c **** 
 1422              		.loc 1 770 0
 1423 00ba 0027     		movs	r7, #0
 1424 00bc 04E0     		b	.L163
 1425              	.L183:
 1426 00be 0027     		movs	r7, #0
 1427 00c0 02E0     		b	.L163
 1428              	.L184:
 1429 00c2 0027     		movs	r7, #0
 1430 00c4 00E0     		b	.L163
 1431              	.L187:
 1432 00c6 0027     		movs	r7, #0
 1433              	.LVL152:
 1434              	.L163:
 861:Drivers/STM32G4xx_HAL_Driver/Src/stm32g4xx_hal_rcc.c **** 
 1435              		.loc 1 861 0
 1436 00c8 474A     		ldr	r2, .L198+4
 1437 00ca 9368     		ldr	r3, [r2, #8]
 1438 00cc 23F00303 		bic	r3, r3, #3
 1439 00d0 6168     		ldr	r1, [r4, #4]
 1440 00d2 0B43     		orrs	r3, r3, r1
 1441 00d4 9360     		str	r3, [r2, #8]
 864:Drivers/STM32G4xx_HAL_Driver/Src/stm32g4xx_hal_rcc.c **** 
 1442              		.loc 1 864 0
 1443 00d6 FFF7FEFF 		bl	HAL_GetTick
 1444              	.LVL153:
 1445 00da 0646     		mov	r6, r0
 1446              	.LVL154:
 1447              	.L167:
 866:Drivers/STM32G4xx_HAL_Driver/Src/stm32g4xx_hal_rcc.c ****     {
 1448              		.loc 1 866 0
 1449 00dc 424B     		ldr	r3, .L198+4
 1450 00de 9B68     		ldr	r3, [r3, #8]
 1451 00e0 03F00C03 		and	r3, r3, #12
 1452 00e4 6268     		ldr	r2, [r4, #4]
 1453 00e6 B3EB820F 		cmp	r3, r2, lsl #2
 1454 00ea 09D0     		beq	.L161
 868:Drivers/STM32G4xx_HAL_Driver/Src/stm32g4xx_hal_rcc.c ****       {
 1455              		.loc 1 868 0
 1456 00ec FFF7FEFF 		bl	HAL_GetTick
 1457              	.LVL155:
 1458 00f0 801B     		subs	r0, r0, r6
 1459 00f2 41F28833 		movw	r3, #5000
 1460 00f6 9842     		cmp	r0, r3
 1461 00f8 F0D9     		bls	.L167
 870:Drivers/STM32G4xx_HAL_Driver/Src/stm32g4xx_hal_rcc.c ****       }
 1462              		.loc 1 870 0
ARM GAS  C:\Users\82057\AppData\Local\Temp\ccODTTN9.s 			page 55


 1463 00fa 0320     		movs	r0, #3
 1464 00fc 4CE0     		b	.L159
 1465              	.LVL156:
 1466              	.L180:
 770:Drivers/STM32G4xx_HAL_Driver/Src/stm32g4xx_hal_rcc.c **** 
 1467              		.loc 1 770 0
 1468 00fe 0027     		movs	r7, #0
 1469              	.LVL157:
 1470              	.L161:
 876:Drivers/STM32G4xx_HAL_Driver/Src/stm32g4xx_hal_rcc.c ****   {
 1471              		.loc 1 876 0
 1472 0100 2368     		ldr	r3, [r4]
 1473 0102 13F0020F 		tst	r3, #2
 1474 0106 48D0     		beq	.L169
 880:Drivers/STM32G4xx_HAL_Driver/Src/stm32g4xx_hal_rcc.c ****     {
 1475              		.loc 1 880 0
 1476 0108 13F0040F 		tst	r3, #4
 1477 010c 04D0     		beq	.L170
 882:Drivers/STM32G4xx_HAL_Driver/Src/stm32g4xx_hal_rcc.c ****     }
 1478              		.loc 1 882 0
 1479 010e 364A     		ldr	r2, .L198+4
 1480 0110 9368     		ldr	r3, [r2, #8]
 1481 0112 43F4E063 		orr	r3, r3, #1792
 1482 0116 9360     		str	r3, [r2, #8]
 1483              	.L170:
 884:Drivers/STM32G4xx_HAL_Driver/Src/stm32g4xx_hal_rcc.c ****     {
 1484              		.loc 1 884 0
 1485 0118 2368     		ldr	r3, [r4]
 1486 011a 13F0080F 		tst	r3, #8
 1487 011e 06D0     		beq	.L171
 886:Drivers/STM32G4xx_HAL_Driver/Src/stm32g4xx_hal_rcc.c ****     }
 1488              		.loc 1 886 0
 1489 0120 314A     		ldr	r2, .L198+4
 1490 0122 9368     		ldr	r3, [r2, #8]
 1491 0124 23F47C53 		bic	r3, r3, #16128
 1492 0128 43F4E063 		orr	r3, r3, #1792
 1493 012c 9360     		str	r3, [r2, #8]
 1494              	.L171:
 891:Drivers/STM32G4xx_HAL_Driver/Src/stm32g4xx_hal_rcc.c ****   }
 1495              		.loc 1 891 0
 1496 012e 2E4A     		ldr	r2, .L198+4
 1497 0130 9368     		ldr	r3, [r2, #8]
 1498 0132 23F0F003 		bic	r3, r3, #240
 1499 0136 A168     		ldr	r1, [r4, #8]
 1500 0138 0B43     		orrs	r3, r3, r1
 1501 013a 9360     		str	r3, [r2, #8]
 1502              	.L172:
 903:Drivers/STM32G4xx_HAL_Driver/Src/stm32g4xx_hal_rcc.c ****   {
 1503              		.loc 1 903 0
 1504 013c 294B     		ldr	r3, .L198
 1505 013e 1B68     		ldr	r3, [r3]
 1506 0140 03F00F03 		and	r3, r3, #15
 1507 0144 AB42     		cmp	r3, r5
 1508 0146 30D8     		bhi	.L197
 1509              	.L173:
 922:Drivers/STM32G4xx_HAL_Driver/Src/stm32g4xx_hal_rcc.c ****   {
 1510              		.loc 1 922 0
ARM GAS  C:\Users\82057\AppData\Local\Temp\ccODTTN9.s 			page 56


 1511 0148 2368     		ldr	r3, [r4]
 1512 014a 13F0040F 		tst	r3, #4
 1513 014e 06D0     		beq	.L176
 925:Drivers/STM32G4xx_HAL_Driver/Src/stm32g4xx_hal_rcc.c ****   }
 1514              		.loc 1 925 0
 1515 0150 254A     		ldr	r2, .L198+4
 1516 0152 9368     		ldr	r3, [r2, #8]
 1517 0154 23F4E063 		bic	r3, r3, #1792
 1518 0158 E168     		ldr	r1, [r4, #12]
 1519 015a 0B43     		orrs	r3, r3, r1
 1520 015c 9360     		str	r3, [r2, #8]
 1521              	.L176:
 929:Drivers/STM32G4xx_HAL_Driver/Src/stm32g4xx_hal_rcc.c ****   {
 1522              		.loc 1 929 0
 1523 015e 2368     		ldr	r3, [r4]
 1524 0160 13F0080F 		tst	r3, #8
 1525 0164 07D0     		beq	.L177
 932:Drivers/STM32G4xx_HAL_Driver/Src/stm32g4xx_hal_rcc.c ****   }
 1526              		.loc 1 932 0
 1527 0166 204A     		ldr	r2, .L198+4
 1528 0168 9368     		ldr	r3, [r2, #8]
 1529 016a 23F46053 		bic	r3, r3, #14336
 1530 016e 2169     		ldr	r1, [r4, #16]
 1531 0170 43EAC103 		orr	r3, r3, r1, lsl #3
 1532 0174 9360     		str	r3, [r2, #8]
 1533              	.L177:
 936:Drivers/STM32G4xx_HAL_Driver/Src/stm32g4xx_hal_rcc.c **** 
 1534              		.loc 1 936 0
 1535 0176 FFF7FEFF 		bl	HAL_RCC_GetSysClockFreq
 1536              	.LVL158:
 1537 017a 1B4B     		ldr	r3, .L198+4
 1538 017c 9B68     		ldr	r3, [r3, #8]
 1539 017e C3F30313 		ubfx	r3, r3, #4, #4
 1540 0182 1B4A     		ldr	r2, .L198+12
 1541 0184 D35C     		ldrb	r3, [r2, r3]	@ zero_extendqisi2
 1542 0186 03F01F03 		and	r3, r3, #31
 1543 018a D840     		lsrs	r0, r0, r3
 1544 018c 194B     		ldr	r3, .L198+16
 1545 018e 1860     		str	r0, [r3]
 939:Drivers/STM32G4xx_HAL_Driver/Src/stm32g4xx_hal_rcc.c **** }
 1546              		.loc 1 939 0
 1547 0190 194B     		ldr	r3, .L198+20
 1548 0192 1868     		ldr	r0, [r3]
 1549 0194 FFF7FEFF 		bl	HAL_InitTick
 1550              	.LVL159:
 1551              	.L159:
 940:Drivers/STM32G4xx_HAL_Driver/Src/stm32g4xx_hal_rcc.c **** 
 1552              		.loc 1 940 0
 1553 0198 F8BD     		pop	{r3, r4, r5, r6, r7, pc}
 1554              	.LVL160:
 1555              	.L169:
 896:Drivers/STM32G4xx_HAL_Driver/Src/stm32g4xx_hal_rcc.c ****     {
 1556              		.loc 1 896 0
 1557 019a 002F     		cmp	r7, #0
 1558 019c CED0     		beq	.L172
 898:Drivers/STM32G4xx_HAL_Driver/Src/stm32g4xx_hal_rcc.c ****     }
 1559              		.loc 1 898 0
ARM GAS  C:\Users\82057\AppData\Local\Temp\ccODTTN9.s 			page 57


 1560 019e 124A     		ldr	r2, .L198+4
 1561 01a0 9368     		ldr	r3, [r2, #8]
 1562 01a2 23F0F003 		bic	r3, r3, #240
 1563 01a6 9360     		str	r3, [r2, #8]
 1564 01a8 C8E7     		b	.L172
 1565              	.L197:
 906:Drivers/STM32G4xx_HAL_Driver/Src/stm32g4xx_hal_rcc.c **** 
 1566              		.loc 1 906 0
 1567 01aa 0E4A     		ldr	r2, .L198
 1568 01ac 1368     		ldr	r3, [r2]
 1569 01ae 23F00F03 		bic	r3, r3, #15
 1570 01b2 2B43     		orrs	r3, r3, r5
 1571 01b4 1360     		str	r3, [r2]
 910:Drivers/STM32G4xx_HAL_Driver/Src/stm32g4xx_hal_rcc.c **** 
 1572              		.loc 1 910 0
 1573 01b6 FFF7FEFF 		bl	HAL_GetTick
 1574              	.LVL161:
 1575 01ba 0646     		mov	r6, r0
 1576              	.LVL162:
 1577              	.L174:
 912:Drivers/STM32G4xx_HAL_Driver/Src/stm32g4xx_hal_rcc.c ****     {
 1578              		.loc 1 912 0
 1579 01bc 094B     		ldr	r3, .L198
 1580 01be 1B68     		ldr	r3, [r3]
 1581 01c0 03F00F03 		and	r3, r3, #15
 1582 01c4 AB42     		cmp	r3, r5
 1583 01c6 BFD0     		beq	.L173
 914:Drivers/STM32G4xx_HAL_Driver/Src/stm32g4xx_hal_rcc.c ****       {
 1584              		.loc 1 914 0
 1585 01c8 FFF7FEFF 		bl	HAL_GetTick
 1586              	.LVL163:
 1587 01cc 801B     		subs	r0, r0, r6
 1588 01ce 41F28833 		movw	r3, #5000
 1589 01d2 9842     		cmp	r0, r3
 1590 01d4 F2D9     		bls	.L174
 916:Drivers/STM32G4xx_HAL_Driver/Src/stm32g4xx_hal_rcc.c ****       }
 1591              		.loc 1 916 0
 1592 01d6 0320     		movs	r0, #3
 1593 01d8 DEE7     		b	.L159
 1594              	.LVL164:
 1595              	.L178:
 1596              	.LCFI11:
 1597              		.cfi_def_cfa_offset 0
 1598              		.cfi_restore 3
 1599              		.cfi_restore 4
 1600              		.cfi_restore 5
 1601              		.cfi_restore 6
 1602              		.cfi_restore 7
 1603              		.cfi_restore 14
 775:Drivers/STM32G4xx_HAL_Driver/Src/stm32g4xx_hal_rcc.c ****   }
 1604              		.loc 1 775 0
 1605 01da 0120     		movs	r0, #1
 1606              	.LVL165:
 940:Drivers/STM32G4xx_HAL_Driver/Src/stm32g4xx_hal_rcc.c **** 
 1607              		.loc 1 940 0
 1608 01dc 7047     		bx	lr
 1609              	.LVL166:
ARM GAS  C:\Users\82057\AppData\Local\Temp\ccODTTN9.s 			page 58


 1610              	.L186:
 1611              	.LCFI12:
 1612              		.cfi_def_cfa_offset 24
 1613              		.cfi_offset 3, -24
 1614              		.cfi_offset 4, -20
 1615              		.cfi_offset 5, -16
 1616              		.cfi_offset 6, -12
 1617              		.cfi_offset 7, -8
 1618              		.cfi_offset 14, -4
 846:Drivers/STM32G4xx_HAL_Driver/Src/stm32g4xx_hal_rcc.c ****         }
 1619              		.loc 1 846 0
 1620 01de 0120     		movs	r0, #1
 1621              	.LVL167:
 1622 01e0 DAE7     		b	.L159
 1623              	.L199:
 1624 01e2 00BF     		.align	2
 1625              	.L198:
 1626 01e4 00200240 		.word	1073881088
 1627 01e8 00100240 		.word	1073876992
 1628 01ec 00B4C404 		.word	80000000
 1629 01f0 00000000 		.word	AHBPrescTable
 1630 01f4 00000000 		.word	SystemCoreClock
 1631 01f8 00000000 		.word	uwTickPrio
 1632              		.cfi_endproc
 1633              	.LFE331:
 1635              		.section	.text.HAL_RCC_GetHCLKFreq,"ax",%progbits
 1636              		.align	1
 1637              		.global	HAL_RCC_GetHCLKFreq
 1638              		.syntax unified
 1639              		.thumb
 1640              		.thumb_func
 1641              		.fpu fpv4-sp-d16
 1643              	HAL_RCC_GetHCLKFreq:
 1644              	.LFB334:
1119:Drivers/STM32G4xx_HAL_Driver/Src/stm32g4xx_hal_rcc.c ****   return SystemCoreClock;
 1645              		.loc 1 1119 0
 1646              		.cfi_startproc
 1647              		@ args = 0, pretend = 0, frame = 0
 1648              		@ frame_needed = 0, uses_anonymous_args = 0
 1649              		@ link register save eliminated.
1121:Drivers/STM32G4xx_HAL_Driver/Src/stm32g4xx_hal_rcc.c **** 
 1650              		.loc 1 1121 0
 1651 0000 014B     		ldr	r3, .L201
 1652 0002 1868     		ldr	r0, [r3]
 1653 0004 7047     		bx	lr
 1654              	.L202:
 1655 0006 00BF     		.align	2
 1656              	.L201:
 1657 0008 00000000 		.word	SystemCoreClock
 1658              		.cfi_endproc
 1659              	.LFE334:
 1661              		.section	.text.HAL_RCC_GetPCLK1Freq,"ax",%progbits
 1662              		.align	1
 1663              		.global	HAL_RCC_GetPCLK1Freq
 1664              		.syntax unified
 1665              		.thumb
 1666              		.thumb_func
ARM GAS  C:\Users\82057\AppData\Local\Temp\ccODTTN9.s 			page 59


 1667              		.fpu fpv4-sp-d16
 1669              	HAL_RCC_GetPCLK1Freq:
 1670              	.LFB335:
1130:Drivers/STM32G4xx_HAL_Driver/Src/stm32g4xx_hal_rcc.c ****   /* Get HCLK source and Compute PCLK1 frequency ---------------------------*/
 1671              		.loc 1 1130 0
 1672              		.cfi_startproc
 1673              		@ args = 0, pretend = 0, frame = 0
 1674              		@ frame_needed = 0, uses_anonymous_args = 0
 1675 0000 08B5     		push	{r3, lr}
 1676              	.LCFI13:
 1677              		.cfi_def_cfa_offset 8
 1678              		.cfi_offset 3, -8
 1679              		.cfi_offset 14, -4
1132:Drivers/STM32G4xx_HAL_Driver/Src/stm32g4xx_hal_rcc.c **** }
 1680              		.loc 1 1132 0
 1681 0002 FFF7FEFF 		bl	HAL_RCC_GetHCLKFreq
 1682              	.LVL168:
 1683 0006 054B     		ldr	r3, .L205
 1684 0008 9B68     		ldr	r3, [r3, #8]
 1685 000a C3F30223 		ubfx	r3, r3, #8, #3
 1686 000e 044A     		ldr	r2, .L205+4
 1687 0010 D35C     		ldrb	r3, [r2, r3]	@ zero_extendqisi2
 1688 0012 03F01F03 		and	r3, r3, #31
1133:Drivers/STM32G4xx_HAL_Driver/Src/stm32g4xx_hal_rcc.c **** 
 1689              		.loc 1 1133 0
 1690 0016 D840     		lsrs	r0, r0, r3
 1691 0018 08BD     		pop	{r3, pc}
 1692              	.L206:
 1693 001a 00BF     		.align	2
 1694              	.L205:
 1695 001c 00100240 		.word	1073876992
 1696 0020 00000000 		.word	APBPrescTable
 1697              		.cfi_endproc
 1698              	.LFE335:
 1700              		.section	.text.HAL_RCC_GetPCLK2Freq,"ax",%progbits
 1701              		.align	1
 1702              		.global	HAL_RCC_GetPCLK2Freq
 1703              		.syntax unified
 1704              		.thumb
 1705              		.thumb_func
 1706              		.fpu fpv4-sp-d16
 1708              	HAL_RCC_GetPCLK2Freq:
 1709              	.LFB336:
1142:Drivers/STM32G4xx_HAL_Driver/Src/stm32g4xx_hal_rcc.c ****   /* Get HCLK source and Compute PCLK2 frequency ---------------------------*/
 1710              		.loc 1 1142 0
 1711              		.cfi_startproc
 1712              		@ args = 0, pretend = 0, frame = 0
 1713              		@ frame_needed = 0, uses_anonymous_args = 0
 1714 0000 08B5     		push	{r3, lr}
 1715              	.LCFI14:
 1716              		.cfi_def_cfa_offset 8
 1717              		.cfi_offset 3, -8
 1718              		.cfi_offset 14, -4
1144:Drivers/STM32G4xx_HAL_Driver/Src/stm32g4xx_hal_rcc.c **** }
 1719              		.loc 1 1144 0
 1720 0002 FFF7FEFF 		bl	HAL_RCC_GetHCLKFreq
 1721              	.LVL169:
ARM GAS  C:\Users\82057\AppData\Local\Temp\ccODTTN9.s 			page 60


 1722 0006 054B     		ldr	r3, .L209
 1723 0008 9B68     		ldr	r3, [r3, #8]
 1724 000a C3F3C223 		ubfx	r3, r3, #11, #3
 1725 000e 044A     		ldr	r2, .L209+4
 1726 0010 D35C     		ldrb	r3, [r2, r3]	@ zero_extendqisi2
 1727 0012 03F01F03 		and	r3, r3, #31
1145:Drivers/STM32G4xx_HAL_Driver/Src/stm32g4xx_hal_rcc.c **** 
 1728              		.loc 1 1145 0
 1729 0016 D840     		lsrs	r0, r0, r3
 1730 0018 08BD     		pop	{r3, pc}
 1731              	.L210:
 1732 001a 00BF     		.align	2
 1733              	.L209:
 1734 001c 00100240 		.word	1073876992
 1735 0020 00000000 		.word	APBPrescTable
 1736              		.cfi_endproc
 1737              	.LFE336:
 1739              		.section	.text.HAL_RCC_GetOscConfig,"ax",%progbits
 1740              		.align	1
 1741              		.global	HAL_RCC_GetOscConfig
 1742              		.syntax unified
 1743              		.thumb
 1744              		.thumb_func
 1745              		.fpu fpv4-sp-d16
 1747              	HAL_RCC_GetOscConfig:
 1748              	.LFB337:
1155:Drivers/STM32G4xx_HAL_Driver/Src/stm32g4xx_hal_rcc.c ****   /* Check the parameters */
 1749              		.loc 1 1155 0
 1750              		.cfi_startproc
 1751              		@ args = 0, pretend = 0, frame = 0
 1752              		@ frame_needed = 0, uses_anonymous_args = 0
 1753              		@ link register save eliminated.
 1754              	.LVL170:
1160:Drivers/STM32G4xx_HAL_Driver/Src/stm32g4xx_hal_rcc.c ****                                       RCC_OSCILLATORTYPE_LSE | RCC_OSCILLATORTYPE_LSI | RCC_OSCILLA
 1755              		.loc 1 1160 0
 1756 0000 2F23     		movs	r3, #47
 1757 0002 0360     		str	r3, [r0]
1164:Drivers/STM32G4xx_HAL_Driver/Src/stm32g4xx_hal_rcc.c ****   {
 1758              		.loc 1 1164 0
 1759 0004 3A4B     		ldr	r3, .L227
 1760 0006 1B68     		ldr	r3, [r3]
 1761 0008 13F4802F 		tst	r3, #262144
 1762 000c 4BD0     		beq	.L212
1166:Drivers/STM32G4xx_HAL_Driver/Src/stm32g4xx_hal_rcc.c ****   }
 1763              		.loc 1 1166 0
 1764 000e 4FF4A023 		mov	r3, #327680
 1765 0012 4360     		str	r3, [r0, #4]
 1766              	.L213:
1178:Drivers/STM32G4xx_HAL_Driver/Src/stm32g4xx_hal_rcc.c ****   {
 1767              		.loc 1 1178 0
 1768 0014 364B     		ldr	r3, .L227
 1769 0016 1B68     		ldr	r3, [r3]
 1770 0018 13F4807F 		tst	r3, #256
 1771 001c 4FD0     		beq	.L215
1180:Drivers/STM32G4xx_HAL_Driver/Src/stm32g4xx_hal_rcc.c ****   }
 1772              		.loc 1 1180 0
 1773 001e 4FF48073 		mov	r3, #256
ARM GAS  C:\Users\82057\AppData\Local\Temp\ccODTTN9.s 			page 61


 1774 0022 C360     		str	r3, [r0, #12]
 1775              	.L216:
1187:Drivers/STM32G4xx_HAL_Driver/Src/stm32g4xx_hal_rcc.c **** 
 1776              		.loc 1 1187 0
 1777 0024 324A     		ldr	r2, .L227
 1778 0026 5368     		ldr	r3, [r2, #4]
 1779 0028 C3F30663 		ubfx	r3, r3, #24, #7
 1780 002c 0361     		str	r3, [r0, #16]
1190:Drivers/STM32G4xx_HAL_Driver/Src/stm32g4xx_hal_rcc.c ****   {
 1781              		.loc 1 1190 0
 1782 002e D2F89030 		ldr	r3, [r2, #144]
 1783 0032 13F0040F 		tst	r3, #4
 1784 0036 45D0     		beq	.L217
1192:Drivers/STM32G4xx_HAL_Driver/Src/stm32g4xx_hal_rcc.c ****   }
 1785              		.loc 1 1192 0
 1786 0038 0523     		movs	r3, #5
 1787 003a 8360     		str	r3, [r0, #8]
 1788              	.L218:
1204:Drivers/STM32G4xx_HAL_Driver/Src/stm32g4xx_hal_rcc.c ****   {
 1789              		.loc 1 1204 0
 1790 003c 2C4B     		ldr	r3, .L227
 1791 003e D3F89430 		ldr	r3, [r3, #148]
 1792 0042 13F0010F 		tst	r3, #1
 1793 0046 49D0     		beq	.L220
1206:Drivers/STM32G4xx_HAL_Driver/Src/stm32g4xx_hal_rcc.c ****   }
 1794              		.loc 1 1206 0
 1795 0048 0123     		movs	r3, #1
 1796 004a 4361     		str	r3, [r0, #20]
 1797              	.L221:
1214:Drivers/STM32G4xx_HAL_Driver/Src/stm32g4xx_hal_rcc.c ****   {
 1798              		.loc 1 1214 0
 1799 004c 284B     		ldr	r3, .L227
 1800 004e D3F89830 		ldr	r3, [r3, #152]
 1801 0052 13F0010F 		tst	r3, #1
 1802 0056 44D0     		beq	.L222
1216:Drivers/STM32G4xx_HAL_Driver/Src/stm32g4xx_hal_rcc.c ****   }
 1803              		.loc 1 1216 0
 1804 0058 0123     		movs	r3, #1
 1805 005a 8361     		str	r3, [r0, #24]
 1806              	.L223:
1224:Drivers/STM32G4xx_HAL_Driver/Src/stm32g4xx_hal_rcc.c ****   {
 1807              		.loc 1 1224 0
 1808 005c 244B     		ldr	r3, .L227
 1809 005e 1B68     		ldr	r3, [r3]
 1810 0060 13F0807F 		tst	r3, #16777216
 1811 0064 40D1     		bne	.L226
1230:Drivers/STM32G4xx_HAL_Driver/Src/stm32g4xx_hal_rcc.c ****   }
 1812              		.loc 1 1230 0
 1813 0066 0123     		movs	r3, #1
 1814 0068 C361     		str	r3, [r0, #28]
 1815              	.L225:
1232:Drivers/STM32G4xx_HAL_Driver/Src/stm32g4xx_hal_rcc.c ****   RCC_OscInitStruct->PLL.PLLM = (READ_BIT(RCC->PLLCFGR, RCC_PLLCFGR_PLLM) >> RCC_PLLCFGR_PLLM_Pos) 
 1816              		.loc 1 1232 0
 1817 006a 214A     		ldr	r2, .L227
 1818 006c D368     		ldr	r3, [r2, #12]
 1819 006e 03F00303 		and	r3, r3, #3
 1820 0072 0362     		str	r3, [r0, #32]
ARM GAS  C:\Users\82057\AppData\Local\Temp\ccODTTN9.s 			page 62


1233:Drivers/STM32G4xx_HAL_Driver/Src/stm32g4xx_hal_rcc.c ****   RCC_OscInitStruct->PLL.PLLN = READ_BIT(RCC->PLLCFGR, RCC_PLLCFGR_PLLN) >> RCC_PLLCFGR_PLLN_Pos;
 1821              		.loc 1 1233 0
 1822 0074 D368     		ldr	r3, [r2, #12]
 1823 0076 C3F30313 		ubfx	r3, r3, #4, #4
 1824 007a 0133     		adds	r3, r3, #1
 1825 007c 4362     		str	r3, [r0, #36]
1234:Drivers/STM32G4xx_HAL_Driver/Src/stm32g4xx_hal_rcc.c ****   RCC_OscInitStruct->PLL.PLLQ = (((READ_BIT(RCC->PLLCFGR, RCC_PLLCFGR_PLLQ) >> RCC_PLLCFGR_PLLQ_Pos
 1826              		.loc 1 1234 0
 1827 007e D368     		ldr	r3, [r2, #12]
 1828 0080 C3F30623 		ubfx	r3, r3, #8, #7
 1829 0084 8362     		str	r3, [r0, #40]
1235:Drivers/STM32G4xx_HAL_Driver/Src/stm32g4xx_hal_rcc.c ****   RCC_OscInitStruct->PLL.PLLR = (((READ_BIT(RCC->PLLCFGR, RCC_PLLCFGR_PLLR) >> RCC_PLLCFGR_PLLR_Pos
 1830              		.loc 1 1235 0
 1831 0086 D368     		ldr	r3, [r2, #12]
 1832 0088 C3F34153 		ubfx	r3, r3, #21, #2
 1833 008c 0133     		adds	r3, r3, #1
 1834 008e 5B00     		lsls	r3, r3, #1
 1835 0090 0363     		str	r3, [r0, #48]
1236:Drivers/STM32G4xx_HAL_Driver/Src/stm32g4xx_hal_rcc.c ****   RCC_OscInitStruct->PLL.PLLP = READ_BIT(RCC->PLLCFGR, RCC_PLLCFGR_PLLPDIV) >> RCC_PLLCFGR_PLLPDIV_
 1836              		.loc 1 1236 0
 1837 0092 D368     		ldr	r3, [r2, #12]
 1838 0094 C3F34163 		ubfx	r3, r3, #25, #2
 1839 0098 0133     		adds	r3, r3, #1
 1840 009a 5B00     		lsls	r3, r3, #1
 1841 009c 4363     		str	r3, [r0, #52]
1237:Drivers/STM32G4xx_HAL_Driver/Src/stm32g4xx_hal_rcc.c **** }
 1842              		.loc 1 1237 0
 1843 009e D368     		ldr	r3, [r2, #12]
 1844 00a0 DB0E     		lsrs	r3, r3, #27
 1845 00a2 C362     		str	r3, [r0, #44]
1238:Drivers/STM32G4xx_HAL_Driver/Src/stm32g4xx_hal_rcc.c **** 
 1846              		.loc 1 1238 0
 1847 00a4 7047     		bx	lr
 1848              	.L212:
1168:Drivers/STM32G4xx_HAL_Driver/Src/stm32g4xx_hal_rcc.c ****   {
 1849              		.loc 1 1168 0
 1850 00a6 124B     		ldr	r3, .L227
 1851 00a8 1B68     		ldr	r3, [r3]
 1852 00aa 13F4803F 		tst	r3, #65536
 1853 00ae 03D0     		beq	.L214
1170:Drivers/STM32G4xx_HAL_Driver/Src/stm32g4xx_hal_rcc.c ****   }
 1854              		.loc 1 1170 0
 1855 00b0 4FF48033 		mov	r3, #65536
 1856 00b4 4360     		str	r3, [r0, #4]
 1857 00b6 ADE7     		b	.L213
 1858              	.L214:
1174:Drivers/STM32G4xx_HAL_Driver/Src/stm32g4xx_hal_rcc.c ****   }
 1859              		.loc 1 1174 0
 1860 00b8 0023     		movs	r3, #0
 1861 00ba 4360     		str	r3, [r0, #4]
 1862 00bc AAE7     		b	.L213
 1863              	.L215:
1184:Drivers/STM32G4xx_HAL_Driver/Src/stm32g4xx_hal_rcc.c ****   }
 1864              		.loc 1 1184 0
 1865 00be 0023     		movs	r3, #0
 1866 00c0 C360     		str	r3, [r0, #12]
 1867 00c2 AFE7     		b	.L216
ARM GAS  C:\Users\82057\AppData\Local\Temp\ccODTTN9.s 			page 63


 1868              	.L217:
1194:Drivers/STM32G4xx_HAL_Driver/Src/stm32g4xx_hal_rcc.c ****   {
 1869              		.loc 1 1194 0
 1870 00c4 0A4B     		ldr	r3, .L227
 1871 00c6 D3F89030 		ldr	r3, [r3, #144]
 1872 00ca 13F0010F 		tst	r3, #1
 1873 00ce 02D0     		beq	.L219
1196:Drivers/STM32G4xx_HAL_Driver/Src/stm32g4xx_hal_rcc.c ****   }
 1874              		.loc 1 1196 0
 1875 00d0 0123     		movs	r3, #1
 1876 00d2 8360     		str	r3, [r0, #8]
 1877 00d4 B2E7     		b	.L218
 1878              	.L219:
1200:Drivers/STM32G4xx_HAL_Driver/Src/stm32g4xx_hal_rcc.c ****   }
 1879              		.loc 1 1200 0
 1880 00d6 0023     		movs	r3, #0
 1881 00d8 8360     		str	r3, [r0, #8]
 1882 00da AFE7     		b	.L218
 1883              	.L220:
1210:Drivers/STM32G4xx_HAL_Driver/Src/stm32g4xx_hal_rcc.c ****   }
 1884              		.loc 1 1210 0
 1885 00dc 0023     		movs	r3, #0
 1886 00de 4361     		str	r3, [r0, #20]
 1887 00e0 B4E7     		b	.L221
 1888              	.L222:
1220:Drivers/STM32G4xx_HAL_Driver/Src/stm32g4xx_hal_rcc.c ****   }
 1889              		.loc 1 1220 0
 1890 00e2 0023     		movs	r3, #0
 1891 00e4 8361     		str	r3, [r0, #24]
 1892 00e6 B9E7     		b	.L223
 1893              	.L226:
1226:Drivers/STM32G4xx_HAL_Driver/Src/stm32g4xx_hal_rcc.c ****   }
 1894              		.loc 1 1226 0
 1895 00e8 0223     		movs	r3, #2
 1896 00ea C361     		str	r3, [r0, #28]
 1897 00ec BDE7     		b	.L225
 1898              	.L228:
 1899 00ee 00BF     		.align	2
 1900              	.L227:
 1901 00f0 00100240 		.word	1073876992
 1902              		.cfi_endproc
 1903              	.LFE337:
 1905              		.section	.text.HAL_RCC_GetClockConfig,"ax",%progbits
 1906              		.align	1
 1907              		.global	HAL_RCC_GetClockConfig
 1908              		.syntax unified
 1909              		.thumb
 1910              		.thumb_func
 1911              		.fpu fpv4-sp-d16
 1913              	HAL_RCC_GetClockConfig:
 1914              	.LFB338:
1249:Drivers/STM32G4xx_HAL_Driver/Src/stm32g4xx_hal_rcc.c ****   /* Check the parameters */
 1915              		.loc 1 1249 0
 1916              		.cfi_startproc
 1917              		@ args = 0, pretend = 0, frame = 0
 1918              		@ frame_needed = 0, uses_anonymous_args = 0
 1919              		@ link register save eliminated.
ARM GAS  C:\Users\82057\AppData\Local\Temp\ccODTTN9.s 			page 64


 1920              	.LVL171:
1255:Drivers/STM32G4xx_HAL_Driver/Src/stm32g4xx_hal_rcc.c **** 
 1921              		.loc 1 1255 0
 1922 0000 0F23     		movs	r3, #15
 1923 0002 0360     		str	r3, [r0]
1258:Drivers/STM32G4xx_HAL_Driver/Src/stm32g4xx_hal_rcc.c **** 
 1924              		.loc 1 1258 0
 1925 0004 0B4B     		ldr	r3, .L230
 1926 0006 9A68     		ldr	r2, [r3, #8]
 1927 0008 02F00302 		and	r2, r2, #3
 1928 000c 4260     		str	r2, [r0, #4]
1261:Drivers/STM32G4xx_HAL_Driver/Src/stm32g4xx_hal_rcc.c **** 
 1929              		.loc 1 1261 0
 1930 000e 9A68     		ldr	r2, [r3, #8]
 1931 0010 02F0F002 		and	r2, r2, #240
 1932 0014 8260     		str	r2, [r0, #8]
1264:Drivers/STM32G4xx_HAL_Driver/Src/stm32g4xx_hal_rcc.c **** 
 1933              		.loc 1 1264 0
 1934 0016 9A68     		ldr	r2, [r3, #8]
 1935 0018 02F4E062 		and	r2, r2, #1792
 1936 001c C260     		str	r2, [r0, #12]
1267:Drivers/STM32G4xx_HAL_Driver/Src/stm32g4xx_hal_rcc.c **** 
 1937              		.loc 1 1267 0
 1938 001e 9B68     		ldr	r3, [r3, #8]
 1939 0020 DB08     		lsrs	r3, r3, #3
 1940 0022 03F4E063 		and	r3, r3, #1792
 1941 0026 0361     		str	r3, [r0, #16]
1270:Drivers/STM32G4xx_HAL_Driver/Src/stm32g4xx_hal_rcc.c **** }
 1942              		.loc 1 1270 0
 1943 0028 034B     		ldr	r3, .L230+4
 1944 002a 1B68     		ldr	r3, [r3]
 1945 002c 03F00F03 		and	r3, r3, #15
 1946 0030 0B60     		str	r3, [r1]
1271:Drivers/STM32G4xx_HAL_Driver/Src/stm32g4xx_hal_rcc.c **** 
 1947              		.loc 1 1271 0
 1948 0032 7047     		bx	lr
 1949              	.L231:
 1950              		.align	2
 1951              	.L230:
 1952 0034 00100240 		.word	1073876992
 1953 0038 00200240 		.word	1073881088
 1954              		.cfi_endproc
 1955              	.LFE338:
 1957              		.section	.text.HAL_RCC_EnableCSS,"ax",%progbits
 1958              		.align	1
 1959              		.global	HAL_RCC_EnableCSS
 1960              		.syntax unified
 1961              		.thumb
 1962              		.thumb_func
 1963              		.fpu fpv4-sp-d16
 1965              	HAL_RCC_EnableCSS:
 1966              	.LFB339:
1284:Drivers/STM32G4xx_HAL_Driver/Src/stm32g4xx_hal_rcc.c ****   SET_BIT(RCC->CR, RCC_CR_CSSON) ;
 1967              		.loc 1 1284 0
 1968              		.cfi_startproc
 1969              		@ args = 0, pretend = 0, frame = 0
 1970              		@ frame_needed = 0, uses_anonymous_args = 0
ARM GAS  C:\Users\82057\AppData\Local\Temp\ccODTTN9.s 			page 65


 1971              		@ link register save eliminated.
1285:Drivers/STM32G4xx_HAL_Driver/Src/stm32g4xx_hal_rcc.c **** }
 1972              		.loc 1 1285 0
 1973 0000 024A     		ldr	r2, .L233
 1974 0002 1368     		ldr	r3, [r2]
 1975 0004 43F40023 		orr	r3, r3, #524288
 1976 0008 1360     		str	r3, [r2]
1286:Drivers/STM32G4xx_HAL_Driver/Src/stm32g4xx_hal_rcc.c **** 
 1977              		.loc 1 1286 0
 1978 000a 7047     		bx	lr
 1979              	.L234:
 1980              		.align	2
 1981              	.L233:
 1982 000c 00100240 		.word	1073876992
 1983              		.cfi_endproc
 1984              	.LFE339:
 1986              		.section	.text.HAL_RCC_EnableLSECSS,"ax",%progbits
 1987              		.align	1
 1988              		.global	HAL_RCC_EnableLSECSS
 1989              		.syntax unified
 1990              		.thumb
 1991              		.thumb_func
 1992              		.fpu fpv4-sp-d16
 1994              	HAL_RCC_EnableLSECSS:
 1995              	.LFB340:
1298:Drivers/STM32G4xx_HAL_Driver/Src/stm32g4xx_hal_rcc.c ****   SET_BIT(RCC->BDCR, RCC_BDCR_LSECSSON) ;
 1996              		.loc 1 1298 0
 1997              		.cfi_startproc
 1998              		@ args = 0, pretend = 0, frame = 0
 1999              		@ frame_needed = 0, uses_anonymous_args = 0
 2000              		@ link register save eliminated.
1299:Drivers/STM32G4xx_HAL_Driver/Src/stm32g4xx_hal_rcc.c **** }
 2001              		.loc 1 1299 0
 2002 0000 034A     		ldr	r2, .L236
 2003 0002 D2F89030 		ldr	r3, [r2, #144]
 2004 0006 43F02003 		orr	r3, r3, #32
 2005 000a C2F89030 		str	r3, [r2, #144]
1300:Drivers/STM32G4xx_HAL_Driver/Src/stm32g4xx_hal_rcc.c **** 
 2006              		.loc 1 1300 0
 2007 000e 7047     		bx	lr
 2008              	.L237:
 2009              		.align	2
 2010              	.L236:
 2011 0010 00100240 		.word	1073876992
 2012              		.cfi_endproc
 2013              	.LFE340:
 2015              		.section	.text.HAL_RCC_DisableLSECSS,"ax",%progbits
 2016              		.align	1
 2017              		.global	HAL_RCC_DisableLSECSS
 2018              		.syntax unified
 2019              		.thumb
 2020              		.thumb_func
 2021              		.fpu fpv4-sp-d16
 2023              	HAL_RCC_DisableLSECSS:
 2024              	.LFB341:
1309:Drivers/STM32G4xx_HAL_Driver/Src/stm32g4xx_hal_rcc.c ****   CLEAR_BIT(RCC->BDCR, RCC_BDCR_LSECSSON) ;
 2025              		.loc 1 1309 0
ARM GAS  C:\Users\82057\AppData\Local\Temp\ccODTTN9.s 			page 66


 2026              		.cfi_startproc
 2027              		@ args = 0, pretend = 0, frame = 0
 2028              		@ frame_needed = 0, uses_anonymous_args = 0
 2029              		@ link register save eliminated.
1310:Drivers/STM32G4xx_HAL_Driver/Src/stm32g4xx_hal_rcc.c **** }
 2030              		.loc 1 1310 0
 2031 0000 034A     		ldr	r2, .L239
 2032 0002 D2F89030 		ldr	r3, [r2, #144]
 2033 0006 23F02003 		bic	r3, r3, #32
 2034 000a C2F89030 		str	r3, [r2, #144]
1311:Drivers/STM32G4xx_HAL_Driver/Src/stm32g4xx_hal_rcc.c **** 
 2035              		.loc 1 1311 0
 2036 000e 7047     		bx	lr
 2037              	.L240:
 2038              		.align	2
 2039              	.L239:
 2040 0010 00100240 		.word	1073876992
 2041              		.cfi_endproc
 2042              	.LFE341:
 2044              		.section	.text.HAL_RCC_CSSCallback,"ax",%progbits
 2045              		.align	1
 2046              		.weak	HAL_RCC_CSSCallback
 2047              		.syntax unified
 2048              		.thumb
 2049              		.thumb_func
 2050              		.fpu fpv4-sp-d16
 2052              	HAL_RCC_CSSCallback:
 2053              	.LFB343:
1336:Drivers/STM32G4xx_HAL_Driver/Src/stm32g4xx_hal_rcc.c ****   /* NOTE : This function should not be modified, when the callback is needed,
 2054              		.loc 1 1336 0
 2055              		.cfi_startproc
 2056              		@ args = 0, pretend = 0, frame = 0
 2057              		@ frame_needed = 0, uses_anonymous_args = 0
 2058              		@ link register save eliminated.
1340:Drivers/STM32G4xx_HAL_Driver/Src/stm32g4xx_hal_rcc.c **** 
 2059              		.loc 1 1340 0
 2060 0000 7047     		bx	lr
 2061              		.cfi_endproc
 2062              	.LFE343:
 2064              		.section	.text.HAL_RCC_NMI_IRQHandler,"ax",%progbits
 2065              		.align	1
 2066              		.global	HAL_RCC_NMI_IRQHandler
 2067              		.syntax unified
 2068              		.thumb
 2069              		.thumb_func
 2070              		.fpu fpv4-sp-d16
 2072              	HAL_RCC_NMI_IRQHandler:
 2073              	.LFB342:
1319:Drivers/STM32G4xx_HAL_Driver/Src/stm32g4xx_hal_rcc.c ****   /* Check RCC CSSF interrupt flag  */
 2074              		.loc 1 1319 0
 2075              		.cfi_startproc
 2076              		@ args = 0, pretend = 0, frame = 0
 2077              		@ frame_needed = 0, uses_anonymous_args = 0
 2078 0000 08B5     		push	{r3, lr}
 2079              	.LCFI15:
 2080              		.cfi_def_cfa_offset 8
 2081              		.cfi_offset 3, -8
ARM GAS  C:\Users\82057\AppData\Local\Temp\ccODTTN9.s 			page 67


 2082              		.cfi_offset 14, -4
1321:Drivers/STM32G4xx_HAL_Driver/Src/stm32g4xx_hal_rcc.c ****   {
 2083              		.loc 1 1321 0
 2084 0002 064B     		ldr	r3, .L246
 2085 0004 DB69     		ldr	r3, [r3, #28]
 2086 0006 13F4807F 		tst	r3, #256
 2087 000a 00D1     		bne	.L245
 2088              	.L242:
1329:Drivers/STM32G4xx_HAL_Driver/Src/stm32g4xx_hal_rcc.c **** 
 2089              		.loc 1 1329 0
 2090 000c 08BD     		pop	{r3, pc}
 2091              	.L245:
1324:Drivers/STM32G4xx_HAL_Driver/Src/stm32g4xx_hal_rcc.c **** 
 2092              		.loc 1 1324 0
 2093 000e FFF7FEFF 		bl	HAL_RCC_CSSCallback
 2094              	.LVL172:
1327:Drivers/STM32G4xx_HAL_Driver/Src/stm32g4xx_hal_rcc.c ****   }
 2095              		.loc 1 1327 0
 2096 0012 024B     		ldr	r3, .L246
 2097 0014 4FF48072 		mov	r2, #256
 2098 0018 1A62     		str	r2, [r3, #32]
1329:Drivers/STM32G4xx_HAL_Driver/Src/stm32g4xx_hal_rcc.c **** 
 2099              		.loc 1 1329 0
 2100 001a F7E7     		b	.L242
 2101              	.L247:
 2102              		.align	2
 2103              	.L246:
 2104 001c 00100240 		.word	1073876992
 2105              		.cfi_endproc
 2106              	.LFE342:
 2108              		.text
 2109              	.Letext0:
 2110              		.file 2 "c:\\program files (x86)\\gnu tools arm embedded\\7 2018-q2-update\\arm-none-eabi\\include
 2111              		.file 3 "c:\\program files (x86)\\gnu tools arm embedded\\7 2018-q2-update\\arm-none-eabi\\include
 2112              		.file 4 "Drivers/CMSIS/Include/core_cm4.h"
 2113              		.file 5 "Drivers/CMSIS/Device/ST/STM32G4xx/Include/system_stm32g4xx.h"
 2114              		.file 6 "Drivers/CMSIS/Device/ST/STM32G4xx/Include/stm32g431xx.h"
 2115              		.file 7 "Drivers/CMSIS/Device/ST/STM32G4xx/Include/stm32g4xx.h"
 2116              		.file 8 "Drivers/STM32G4xx_HAL_Driver/Inc/stm32g4xx_hal_def.h"
 2117              		.file 9 "Drivers/STM32G4xx_HAL_Driver/Inc/stm32g4xx_hal_rcc.h"
 2118              		.file 10 "Drivers/STM32G4xx_HAL_Driver/Inc/stm32g4xx_hal_gpio.h"
 2119              		.file 11 "Drivers/STM32G4xx_HAL_Driver/Inc/stm32g4xx_hal_flash.h"
 2120              		.file 12 "Drivers/STM32G4xx_HAL_Driver/Inc/stm32g4xx_hal_uart.h"
 2121              		.file 13 "Drivers/STM32G4xx_HAL_Driver/Inc/stm32g4xx_hal.h"
ARM GAS  C:\Users\82057\AppData\Local\Temp\ccODTTN9.s 			page 68


DEFINED SYMBOLS
                            *ABS*:00000000 stm32g4xx_hal_rcc.c
C:\Users\82057\AppData\Local\Temp\ccODTTN9.s:18     .text.RCC_GetSysClockFreqFromPLLSource:00000000 $t
C:\Users\82057\AppData\Local\Temp\ccODTTN9.s:24     .text.RCC_GetSysClockFreqFromPLLSource:00000000 RCC_GetSysClockFreqFromPLLSource
C:\Users\82057\AppData\Local\Temp\ccODTTN9.s:83     .text.RCC_GetSysClockFreqFromPLLSource:0000004c $d
C:\Users\82057\AppData\Local\Temp\ccODTTN9.s:90     .text.HAL_RCC_DeInit:00000000 $t
C:\Users\82057\AppData\Local\Temp\ccODTTN9.s:97     .text.HAL_RCC_DeInit:00000000 HAL_RCC_DeInit
C:\Users\82057\AppData\Local\Temp\ccODTTN9.s:238    .text.HAL_RCC_DeInit:000000bc $d
C:\Users\82057\AppData\Local\Temp\ccODTTN9.s:246    .text.HAL_RCC_OscConfig:00000000 $t
C:\Users\82057\AppData\Local\Temp\ccODTTN9.s:253    .text.HAL_RCC_OscConfig:00000000 HAL_RCC_OscConfig
C:\Users\82057\AppData\Local\Temp\ccODTTN9.s:729    .text.HAL_RCC_OscConfig:000002e8 $d
C:\Users\82057\AppData\Local\Temp\ccODTTN9.s:734    .text.HAL_RCC_OscConfig:000002f4 $t
C:\Users\82057\AppData\Local\Temp\ccODTTN9.s:1073   .text.HAL_RCC_OscConfig:000004d8 $d
C:\Users\82057\AppData\Local\Temp\ccODTTN9.s:1080   .text.HAL_RCC_MCOConfig:00000000 $t
C:\Users\82057\AppData\Local\Temp\ccODTTN9.s:1087   .text.HAL_RCC_MCOConfig:00000000 HAL_RCC_MCOConfig
C:\Users\82057\AppData\Local\Temp\ccODTTN9.s:1166   .text.HAL_RCC_MCOConfig:00000054 $d
C:\Users\82057\AppData\Local\Temp\ccODTTN9.s:1171   .text.HAL_RCC_GetSysClockFreq:00000000 $t
C:\Users\82057\AppData\Local\Temp\ccODTTN9.s:1178   .text.HAL_RCC_GetSysClockFreq:00000000 HAL_RCC_GetSysClockFreq
C:\Users\82057\AppData\Local\Temp\ccODTTN9.s:1271   .text.HAL_RCC_GetSysClockFreq:0000007c $d
C:\Users\82057\AppData\Local\Temp\ccODTTN9.s:1278   .text.HAL_RCC_ClockConfig:00000000 $t
C:\Users\82057\AppData\Local\Temp\ccODTTN9.s:1285   .text.HAL_RCC_ClockConfig:00000000 HAL_RCC_ClockConfig
C:\Users\82057\AppData\Local\Temp\ccODTTN9.s:1626   .text.HAL_RCC_ClockConfig:000001e4 $d
C:\Users\82057\AppData\Local\Temp\ccODTTN9.s:1636   .text.HAL_RCC_GetHCLKFreq:00000000 $t
C:\Users\82057\AppData\Local\Temp\ccODTTN9.s:1643   .text.HAL_RCC_GetHCLKFreq:00000000 HAL_RCC_GetHCLKFreq
C:\Users\82057\AppData\Local\Temp\ccODTTN9.s:1657   .text.HAL_RCC_GetHCLKFreq:00000008 $d
C:\Users\82057\AppData\Local\Temp\ccODTTN9.s:1662   .text.HAL_RCC_GetPCLK1Freq:00000000 $t
C:\Users\82057\AppData\Local\Temp\ccODTTN9.s:1669   .text.HAL_RCC_GetPCLK1Freq:00000000 HAL_RCC_GetPCLK1Freq
C:\Users\82057\AppData\Local\Temp\ccODTTN9.s:1695   .text.HAL_RCC_GetPCLK1Freq:0000001c $d
C:\Users\82057\AppData\Local\Temp\ccODTTN9.s:1701   .text.HAL_RCC_GetPCLK2Freq:00000000 $t
C:\Users\82057\AppData\Local\Temp\ccODTTN9.s:1708   .text.HAL_RCC_GetPCLK2Freq:00000000 HAL_RCC_GetPCLK2Freq
C:\Users\82057\AppData\Local\Temp\ccODTTN9.s:1734   .text.HAL_RCC_GetPCLK2Freq:0000001c $d
C:\Users\82057\AppData\Local\Temp\ccODTTN9.s:1740   .text.HAL_RCC_GetOscConfig:00000000 $t
C:\Users\82057\AppData\Local\Temp\ccODTTN9.s:1747   .text.HAL_RCC_GetOscConfig:00000000 HAL_RCC_GetOscConfig
C:\Users\82057\AppData\Local\Temp\ccODTTN9.s:1901   .text.HAL_RCC_GetOscConfig:000000f0 $d
C:\Users\82057\AppData\Local\Temp\ccODTTN9.s:1906   .text.HAL_RCC_GetClockConfig:00000000 $t
C:\Users\82057\AppData\Local\Temp\ccODTTN9.s:1913   .text.HAL_RCC_GetClockConfig:00000000 HAL_RCC_GetClockConfig
C:\Users\82057\AppData\Local\Temp\ccODTTN9.s:1952   .text.HAL_RCC_GetClockConfig:00000034 $d
C:\Users\82057\AppData\Local\Temp\ccODTTN9.s:1958   .text.HAL_RCC_EnableCSS:00000000 $t
C:\Users\82057\AppData\Local\Temp\ccODTTN9.s:1965   .text.HAL_RCC_EnableCSS:00000000 HAL_RCC_EnableCSS
C:\Users\82057\AppData\Local\Temp\ccODTTN9.s:1982   .text.HAL_RCC_EnableCSS:0000000c $d
C:\Users\82057\AppData\Local\Temp\ccODTTN9.s:1987   .text.HAL_RCC_EnableLSECSS:00000000 $t
C:\Users\82057\AppData\Local\Temp\ccODTTN9.s:1994   .text.HAL_RCC_EnableLSECSS:00000000 HAL_RCC_EnableLSECSS
C:\Users\82057\AppData\Local\Temp\ccODTTN9.s:2011   .text.HAL_RCC_EnableLSECSS:00000010 $d
C:\Users\82057\AppData\Local\Temp\ccODTTN9.s:2016   .text.HAL_RCC_DisableLSECSS:00000000 $t
C:\Users\82057\AppData\Local\Temp\ccODTTN9.s:2023   .text.HAL_RCC_DisableLSECSS:00000000 HAL_RCC_DisableLSECSS
C:\Users\82057\AppData\Local\Temp\ccODTTN9.s:2040   .text.HAL_RCC_DisableLSECSS:00000010 $d
C:\Users\82057\AppData\Local\Temp\ccODTTN9.s:2045   .text.HAL_RCC_CSSCallback:00000000 $t
C:\Users\82057\AppData\Local\Temp\ccODTTN9.s:2052   .text.HAL_RCC_CSSCallback:00000000 HAL_RCC_CSSCallback
C:\Users\82057\AppData\Local\Temp\ccODTTN9.s:2065   .text.HAL_RCC_NMI_IRQHandler:00000000 $t
C:\Users\82057\AppData\Local\Temp\ccODTTN9.s:2072   .text.HAL_RCC_NMI_IRQHandler:00000000 HAL_RCC_NMI_IRQHandler
C:\Users\82057\AppData\Local\Temp\ccODTTN9.s:2104   .text.HAL_RCC_NMI_IRQHandler:0000001c $d

UNDEFINED SYMBOLS
HAL_GetTick
HAL_InitTick
SystemCoreClock
uwTickPrio
ARM GAS  C:\Users\82057\AppData\Local\Temp\ccODTTN9.s 			page 69


HAL_GPIO_Init
AHBPrescTable
APBPrescTable
